ARM GAS  C:\Users\zakis\AppData\Local\Temp\ccUepUpg.s 			page 1


   1              		.syntax unified
   2              		.cpu cortex-m3
   3              		.fpu softvfp
   4              		.eabi_attribute 20, 1
   5              		.eabi_attribute 21, 1
   6              		.eabi_attribute 23, 3
   7              		.eabi_attribute 24, 1
   8              		.eabi_attribute 25, 1
   9              		.eabi_attribute 26, 1
  10              		.eabi_attribute 30, 1
  11              		.eabi_attribute 34, 1
  12              		.eabi_attribute 18, 4
  13              		.thumb
  14              		.syntax unified
  15              		.file	"statemachine.c"
  16              		.text
  17              	.Ltext0:
  18              		.cfi_sections	.debug_frame
  19              		.section	.text.STATE_init,"ax",%progbits
  20              		.align	2
  21              		.global	STATE_init
  22              		.thumb
  23              		.thumb_func
  24              		.type	STATE_init, %function
  25              	STATE_init:
  26              	.LFB0:
  27              		.file 1 "source\\bsw\\statemachine.c"
   1:source\bsw/statemachine.c **** /**
   2:source\bsw/statemachine.c **** * \file <filename>
   3:source\bsw/statemachine.c **** * \author <author-name>
   4:source\bsw/statemachine.c **** * \date <date>
   5:source\bsw/statemachine.c **** *
   6:source\bsw/statemachine.c **** * \brief <Symbolic File name>
   7:source\bsw/statemachine.c **** *
   8:source\bsw/statemachine.c **** * \copyright Copyright ©2016
   9:source\bsw/statemachine.c **** * Department of electrical engineering and information technology, Hochschule Darmstadt - Universit
  10:source\bsw/statemachine.c **** * Permission to use, copy, modify, and distribute this software and its documentation for education
  11:source\bsw/statemachine.c **** * (unless permitted by h_da) and official h_da projects, is hereby granted for enrolled students of
  12:source\bsw/statemachine.c **** * this paragraph and the following paragraph appear in all copies, modifications, and distributions
  13:source\bsw/statemachine.c **** * Contact Prof.Dr.-Ing. Peter Fromm, peter.fromm@h-da.de, Birkenweg 8 64295 Darmstadt - GERMANY for
  14:source\bsw/statemachine.c **** *
  15:source\bsw/statemachine.c **** * \warning This software is a PROTOTYPE version and is not designed or intended for use in producti
  16:source\bsw/statemachine.c **** * The user represents and warrants that it will NOT use or redistribute the Software for such purpo
  17:source\bsw/statemachine.c **** * This prototype is for research purposes only. This software is provided "AS IS," without a warran
  18:source\bsw/statemachine.c **** */
  19:source\bsw/statemachine.c **** 
  20:source\bsw/statemachine.c **** /*****************************************************************************/
  21:source\bsw/statemachine.c **** /* Include files                                                             */
  22:source\bsw/statemachine.c **** /*****************************************************************************/
  23:source\bsw/statemachine.c **** 
  24:source\bsw/statemachine.c **** #include "statemachine.h"
  25:source\bsw/statemachine.c **** 
  26:source\bsw/statemachine.c **** /*****************************************************************************/
  27:source\bsw/statemachine.c **** /* Local pre-processor symbols/macros ('#define')                            */
  28:source\bsw/statemachine.c **** /*****************************************************************************/
  29:source\bsw/statemachine.c **** 
  30:source\bsw/statemachine.c **** /*****************************************************************************/
ARM GAS  C:\Users\zakis\AppData\Local\Temp\ccUepUpg.s 			page 2


  31:source\bsw/statemachine.c **** /* Global variable definitions (declared in header file with 'extern')       */
  32:source\bsw/statemachine.c **** /*****************************************************************************/
  33:source\bsw/statemachine.c **** 
  34:source\bsw/statemachine.c **** 
  35:source\bsw/statemachine.c **** 
  36:source\bsw/statemachine.c **** 
  37:source\bsw/statemachine.c **** /*****************************************************************************/
  38:source\bsw/statemachine.c **** /* Local variable definitions ('static')                                     */
  39:source\bsw/statemachine.c **** /*****************************************************************************/
  40:source\bsw/statemachine.c **** 
  41:source\bsw/statemachine.c **** 
  42:source\bsw/statemachine.c **** 
  43:source\bsw/statemachine.c **** 
  44:source\bsw/statemachine.c **** 
  45:source\bsw/statemachine.c **** 
  46:source\bsw/statemachine.c **** 
  47:source\bsw/statemachine.c **** /*****************************************************************************/
  48:source\bsw/statemachine.c **** /* Local function prototypes ('static') / Guards                             */
  49:source\bsw/statemachine.c **** /*****************************************************************************/
  50:source\bsw/statemachine.c **** 
  51:source\bsw/statemachine.c **** 
  52:source\bsw/statemachine.c **** 
  53:source\bsw/statemachine.c **** /*****************************************************************************/
  54:source\bsw/statemachine.c **** /* Local function prototypes ('static') / Helper                             */
  55:source\bsw/statemachine.c **** /*****************************************************************************/
  56:source\bsw/statemachine.c **** 
  57:source\bsw/statemachine.c **** 
  58:source\bsw/statemachine.c **** /**
  59:source\bsw/statemachine.c ****  * Get the index of the state in the table
  60:source\bsw/statemachine.c ****  */
  61:source\bsw/statemachine.c **** sint16_t STATE__getIndexOfState(STATE_stateOuterTransitionTable_t const * const  transitionTable,
  62:source\bsw/statemachine.c ****                                 uint16_t transitionTableSize,
  63:source\bsw/statemachine.c ****                                 STATE_state_t state);
  64:source\bsw/statemachine.c **** 
  65:source\bsw/statemachine.c **** 
  66:source\bsw/statemachine.c **** 
  67:source\bsw/statemachine.c **** /*****************************************************************************/
  68:source\bsw/statemachine.c **** /* Function implementation - global ('extern') and local ('static')          */
  69:source\bsw/statemachine.c **** /*****************************************************************************/
  70:source\bsw/statemachine.c **** 
  71:source\bsw/statemachine.c **** /**
  72:source\bsw/statemachine.c ****  * Initialise the state machine, especially the internal object
  73:source\bsw/statemachine.c ****  * \param STATEMACHINE_t* const me                                          : OUT - Pointer to the 
  74:source\bsw/statemachine.c ****  * \param STATE_stateOuterTransitionTable_t const *const transitionTable    : IN - Pointer to trans
  75:source\bsw/statemachine.c ****  * \param uint16_t transitionTableSize                                      : IN - Size of the tran
  76:source\bsw/statemachine.c ****  * \param STATE_stateActionTable_t const * const actionTable                : IN - Pointer to actio
  77:source\bsw/statemachine.c ****  * \param uint16_t actionTableSize                                          : IN - Size of action t
  78:source\bsw/statemachine.c ****  * \param STATE_state_t state                                               : IN - Initial State
  79:source\bsw/statemachine.c ****  * \return RC_SUCCESS;
  80:source\bsw/statemachine.c ****  */
  81:source\bsw/statemachine.c **** RC_t STATE_init(STATEMACHINE_t* const me,
  82:source\bsw/statemachine.c ****                 STATE_stateOuterTransitionTable_t const * const transitionTable,
  83:source\bsw/statemachine.c ****                 uint16_t transitionTableSize,
  84:source\bsw/statemachine.c ****                 STATE_stateActionTable_t const * const actionTable,
  85:source\bsw/statemachine.c ****                 uint16_t actionTableSize,
  86:source\bsw/statemachine.c ****                 STATE_state_t state)
  87:source\bsw/statemachine.c **** {
ARM GAS  C:\Users\zakis\AppData\Local\Temp\ccUepUpg.s 			page 3


  28              		.loc 1 87 0
  29              		.cfi_startproc
  30              		@ args = 8, pretend = 0, frame = 0
  31              		@ frame_needed = 0, uses_anonymous_args = 0
  32              		@ link register save eliminated.
  33              	.LVL0:
  88:source\bsw/statemachine.c ****     me->transitionTable = transitionTable;
  34              		.loc 1 88 0
  35 0000 0160     		str	r1, [r0]
  89:source\bsw/statemachine.c ****     me->transitionTableSize = transitionTableSize;
  36              		.loc 1 89 0
  37 0002 8280     		strh	r2, [r0, #4]	@ movhi
  90:source\bsw/statemachine.c ****     me->actionTable = actionTable;
  38              		.loc 1 90 0
  39 0004 8360     		str	r3, [r0, #8]
  91:source\bsw/statemachine.c ****     me->actionTableSize = actionTableSize;
  40              		.loc 1 91 0
  41 0006 BDF80030 		ldrh	r3, [sp]
  42              	.LVL1:
  43 000a 8381     		strh	r3, [r0, #12]	@ movhi
  92:source\bsw/statemachine.c ****     me->state = state;
  44              		.loc 1 92 0
  45 000c 9DF80430 		ldrb	r3, [sp, #4]	@ zero_extendqisi2
  46 0010 8373     		strb	r3, [r0, #14]
  47              	.LVL2:
  93:source\bsw/statemachine.c **** }
  48              		.loc 1 93 0
  49 0012 7047     		bx	lr
  50              		.cfi_endproc
  51              	.LFE0:
  52              		.size	STATE_init, .-STATE_init
  53              		.section	.text.STATE__getIndexOfState,"ax",%progbits
  54              		.align	2
  55              		.global	STATE__getIndexOfState
  56              		.thumb
  57              		.thumb_func
  58              		.type	STATE__getIndexOfState, %function
  59              	STATE__getIndexOfState:
  60              	.LFB1:
  94:source\bsw/statemachine.c **** 
  95:source\bsw/statemachine.c **** 
  96:source\bsw/statemachine.c **** 
  97:source\bsw/statemachine.c **** #define STATE_INVALIDINDEX -1
  98:source\bsw/statemachine.c **** sint16_t STATE__getIndexOfState(STATE_stateOuterTransitionTable_t const * const  transitionTable,
  99:source\bsw/statemachine.c ****                                 uint16_t transitionTableSize,
 100:source\bsw/statemachine.c ****                                 STATE_state_t state)
 101:source\bsw/statemachine.c **** {
  61              		.loc 1 101 0
  62              		.cfi_startproc
  63              		@ args = 0, pretend = 0, frame = 0
  64              		@ frame_needed = 0, uses_anonymous_args = 0
  65              		@ link register save eliminated.
  66              	.LVL3:
  67 0000 30B4     		push	{r4, r5}
  68              		.cfi_def_cfa_offset 8
  69              		.cfi_offset 4, -8
  70              		.cfi_offset 5, -4
ARM GAS  C:\Users\zakis\AppData\Local\Temp\ccUepUpg.s 			page 4


  71              	.LVL4:
  72              	.LBB2:
 102:source\bsw/statemachine.c ****     sint16_t result = STATE_INVALIDINDEX; //error
 103:source\bsw/statemachine.c ****     
 104:source\bsw/statemachine.c ****     for (uint16_t i = 0; i < transitionTableSize; i++)
  73              		.loc 1 104 0
  74 0002 0023     		movs	r3, #0
  75 0004 09E0     		b	.L3
  76              	.LVL5:
  77              	.L6:
 105:source\bsw/statemachine.c ****     {
 106:source\bsw/statemachine.c ****         if ((*transitionTable)[i].fromState == state)
  78              		.loc 1 106 0
  79 0006 03EB4305 		add	r5, r3, r3, lsl #1
  80 000a AC00     		lsls	r4, r5, #2
  81 000c 045D     		ldrb	r4, [r0, r4]	@ zero_extendqisi2
  82 000e 9442     		cmp	r4, r2
  83 0010 01D1     		bne	.L4
 107:source\bsw/statemachine.c ****         {
 108:source\bsw/statemachine.c ****             return i;
  84              		.loc 1 108 0
  85 0012 18B2     		sxth	r0, r3
  86              	.LVL6:
  87 0014 05E0     		b	.L5
  88              	.LVL7:
  89              	.L4:
 104:source\bsw/statemachine.c ****     {
  90              		.loc 1 104 0 discriminator 2
  91 0016 0133     		adds	r3, r3, #1
  92              	.LVL8:
  93 0018 9BB2     		uxth	r3, r3
  94              	.LVL9:
  95              	.L3:
 104:source\bsw/statemachine.c ****     {
  96              		.loc 1 104 0 is_stmt 0 discriminator 1
  97 001a 8B42     		cmp	r3, r1
  98 001c F3D3     		bcc	.L6
  99              	.LBE2:
 109:source\bsw/statemachine.c ****         }
 110:source\bsw/statemachine.c ****     }
 111:source\bsw/statemachine.c ****     
 112:source\bsw/statemachine.c ****     return STATE_INVALIDINDEX; 
 100              		.loc 1 112 0 is_stmt 1
 101 001e 4FF0FF30 		mov	r0, #-1
 102              	.LVL10:
 103              	.L5:
 113:source\bsw/statemachine.c **** }
 104              		.loc 1 113 0
 105 0022 30BC     		pop	{r4, r5}
 106              		.cfi_restore 5
 107              		.cfi_restore 4
 108              		.cfi_def_cfa_offset 0
 109 0024 7047     		bx	lr
 110              		.cfi_endproc
 111              	.LFE1:
 112              		.size	STATE__getIndexOfState, .-STATE__getIndexOfState
 113 0026 00BF     		.section	.text.STATE_processEvent,"ax",%progbits
ARM GAS  C:\Users\zakis\AppData\Local\Temp\ccUepUpg.s 			page 5


 114              		.align	2
 115              		.global	STATE_processEvent
 116              		.thumb
 117              		.thumb_func
 118              		.type	STATE_processEvent, %function
 119              	STATE_processEvent:
 120              	.LFB2:
 114:source\bsw/statemachine.c **** 
 115:source\bsw/statemachine.c **** /**
 116:source\bsw/statemachine.c ****  * This function will process the event with the defined state machine
 117:source\bsw/statemachine.c ****  * The state machine is implemented as a singleton object, only the configuration may differ
 118:source\bsw/statemachine.c ****  * \param STATEMACHINE_t* const me              : IN - Pointer to the state machine
 119:source\bsw/statemachine.c ****  * \param STATE_event_t ev                      : IN - Event to be processed
 120:source\bsw/statemachine.c ****  * \return RC_SUCCESS or error
 121:source\bsw/statemachine.c ****  */
 122:source\bsw/statemachine.c **** RC_t STATE_processEvent(STATEMACHINE_t* const me, STATE_event_t ev)
 123:source\bsw/statemachine.c **** {    
 121              		.loc 1 123 0
 122              		.cfi_startproc
 123              		@ args = 0, pretend = 0, frame = 16
 124              		@ frame_needed = 0, uses_anonymous_args = 0
 125              	.LVL11:
 126 0000 2DE9F04F 		push	{r4, r5, r6, r7, r8, r9, r10, fp, lr}
 127              		.cfi_def_cfa_offset 36
 128              		.cfi_offset 4, -36
 129              		.cfi_offset 5, -32
 130              		.cfi_offset 6, -28
 131              		.cfi_offset 7, -24
 132              		.cfi_offset 8, -20
 133              		.cfi_offset 9, -16
 134              		.cfi_offset 10, -12
 135              		.cfi_offset 11, -8
 136              		.cfi_offset 14, -4
 137 0004 85B0     		sub	sp, sp, #20
 138              		.cfi_def_cfa_offset 56
 139 0006 0546     		mov	r5, r0
 140 0008 8A46     		mov	r10, r1
 141              	.LVL12:
 124:source\bsw/statemachine.c ****     STATE_GuardPtr_t guard = 0;
 125:source\bsw/statemachine.c ****     STATE_ActionPtr_t acTransition = 0;
 126:source\bsw/statemachine.c ****     STATE_ActionPtr_t acEntry = 0;
 127:source\bsw/statemachine.c ****     STATE_ActionPtr_t acExit = 0;
 128:source\bsw/statemachine.c ****     
 129:source\bsw/statemachine.c ****     
 130:source\bsw/statemachine.c ****     //Read the state from the watchdog object;
 131:source\bsw/statemachine.c ****     STATE_state_t currentState = me->state;
 142              		.loc 1 131 0
 143 000a 90F80E80 		ldrb	r8, [r0, #14]	@ zero_extendqisi2
 144              	.LVL13:
 132:source\bsw/statemachine.c ****     STATE_state_t toState = currentState; //Just in case
 133:source\bsw/statemachine.c ****     
 134:source\bsw/statemachine.c ****     //Calculate the table index of the outer table
 135:source\bsw/statemachine.c ****     sint16_t index = STATE__getIndexOfState(me->transitionTable, me->transitionTableSize, currentSt
 145              		.loc 1 135 0
 146 000e 0468     		ldr	r4, [r0]
 147 0010 4246     		mov	r2, r8
 148 0012 8188     		ldrh	r1, [r0, #4]
ARM GAS  C:\Users\zakis\AppData\Local\Temp\ccUepUpg.s 			page 6


 149              	.LVL14:
 150 0014 2046     		mov	r0, r4
 151              	.LVL15:
 152 0016 FFF7FEFF 		bl	STATE__getIndexOfState
 153              	.LVL16:
 136:source\bsw/statemachine.c ****     
 137:source\bsw/statemachine.c ****     //This should never happen
 138:source\bsw/statemachine.c ****     if (STATE_INVALIDINDEX == index)
 154              		.loc 1 138 0
 155 001a B0F1FF3F 		cmp	r0, #-1
 156 001e 63D0     		beq	.L21
 139:source\bsw/statemachine.c ****     {
 140:source\bsw/statemachine.c ****         return RC_ERROR_RANGE;
 141:source\bsw/statemachine.c ****     }
 142:source\bsw/statemachine.c ****     
 143:source\bsw/statemachine.c ****     STATE_stateInnerTransitionTable_t const* const pInnerTable = (*(me->transitionTable))[index].pI
 157              		.loc 1 143 0
 158 0020 00EB4002 		add	r2, r0, r0, lsl #1
 159 0024 9300     		lsls	r3, r2, #2
 160 0026 1A46     		mov	r2, r3
 161 0028 2344     		add	r3, r3, r4
 162 002a 5E68     		ldr	r6, [r3, #4]
 163              	.LVL17:
 144:source\bsw/statemachine.c ****     
 145:source\bsw/statemachine.c ****     uint16_t innerTableSize = 0;
 146:source\bsw/statemachine.c ****     if (0 != pInnerTable)
 164              		.loc 1 146 0
 165 002c 1EB1     		cbz	r6, .L22
 147:source\bsw/statemachine.c **** 	{
 148:source\bsw/statemachine.c **** 		innerTableSize = (*me->transitionTable)[index].size;
 166              		.loc 1 148 0
 167 002e 1444     		add	r4, r4, r2
 168 0030 B4F80890 		ldrh	r9, [r4, #8]
 169              	.LVL18:
 170 0034 01E0     		b	.L10
 171              	.LVL19:
 172              	.L22:
 145:source\bsw/statemachine.c ****     if (0 != pInnerTable)
 173              		.loc 1 145 0
 174 0036 4FF00009 		mov	r9, #0
 175              	.LVL20:
 176              	.L10:
 149:source\bsw/statemachine.c **** 	}
 150:source\bsw/statemachine.c ****     
 151:source\bsw/statemachine.c ****     if (0 == pInnerTable || 0 == innerTableSize)
 177              		.loc 1 151 0
 178 003a 002E     		cmp	r6, #0
 179 003c 57D0     		beq	.L23
 180              		.loc 1 151 0 is_stmt 0 discriminator 1
 181 003e B9F1000F 		cmp	r9, #0
 182 0042 57D0     		beq	.L24
 183 0044 4746     		mov	r7, r8
 184 0046 0024     		movs	r4, #0
 185 0048 0294     		str	r4, [sp, #8]
 186 004a 0194     		str	r4, [sp, #4]
 187 004c 47E0     		b	.L11
 188              	.LVL21:
ARM GAS  C:\Users\zakis\AppData\Local\Temp\ccUepUpg.s 			page 7


 189              	.L20:
 190              	.LBB3:
 152:source\bsw/statemachine.c ****     {
 153:source\bsw/statemachine.c ****         //No transitions in this state
 154:source\bsw/statemachine.c ****         return RC_ERROR_INVALID_STATE;
 155:source\bsw/statemachine.c ****     }
 156:source\bsw/statemachine.c ****     
 157:source\bsw/statemachine.c ****     //Iterate through the inner table and find correct transition
 158:source\bsw/statemachine.c ****     for (uint16_t i = 0; i < innerTableSize; i++)
 159:source\bsw/statemachine.c ****     {
 160:source\bsw/statemachine.c ****         if ((*pInnerTable)[i].event == ev)
 191              		.loc 1 160 0 is_stmt 1
 192 004e A346     		mov	fp, r4
 193 0050 04EB4402 		add	r2, r4, r4, lsl #1
 194 0054 9300     		lsls	r3, r2, #2
 195 0056 F35C     		ldrb	r3, [r6, r3]	@ zero_extendqisi2
 196 0058 5345     		cmp	r3, r10
 197 005a 3ED1     		bne	.L12
 161:source\bsw/statemachine.c ****         {
 162:source\bsw/statemachine.c ****             //Transition found, let's check the guard
 163:source\bsw/statemachine.c ****             guard = (*pInnerTable)[i].guard;
 198              		.loc 1 163 0
 199 005c 04EB4402 		add	r2, r4, r4, lsl #1
 200 0060 9300     		lsls	r3, r2, #2
 201 0062 3344     		add	r3, r3, r6
 202 0064 5B68     		ldr	r3, [r3, #4]
 203              	.LVL22:
 164:source\bsw/statemachine.c ****             if (0 == guard || TRUE == guard())
 204              		.loc 1 164 0
 205 0066 13B1     		cbz	r3, .L13
 206              		.loc 1 164 0 is_stmt 0 discriminator 1
 207 0068 9847     		blx	r3
 208              	.LVL23:
 209 006a 0128     		cmp	r0, #1
 210 006c 35D1     		bne	.L12
 211              	.L13:
 212              	.LBB4:
 165:source\bsw/statemachine.c ****             {
 166:source\bsw/statemachine.c ****                 //Transition is valid
 167:source\bsw/statemachine.c ****                 acTransition = (*pInnerTable)[i].actionTransition;
 213              		.loc 1 167 0 is_stmt 1
 214 006e 4FEA4B02 		lsl	r2, fp, #1
 215 0072 02EB0B01 		add	r1, r2, fp
 216 0076 8B00     		lsls	r3, r1, #2
 217 0078 1946     		mov	r1, r3
 218 007a 3344     		add	r3, r3, r6
 219 007c 9B68     		ldr	r3, [r3, #8]
 220 007e 0393     		str	r3, [sp, #12]
 221              	.LVL24:
 168:source\bsw/statemachine.c ****                 toState = (*pInnerTable)[i].toState;
 222              		.loc 1 168 0
 223 0080 0B46     		mov	r3, r1
 224              	.LVL25:
 225 0082 3344     		add	r3, r3, r6
 226              	.LVL26:
 227 0084 5F78     		ldrb	r7, [r3, #1]	@ zero_extendqisi2
 228              	.LVL27:
ARM GAS  C:\Users\zakis\AppData\Local\Temp\ccUepUpg.s 			page 8


 169:source\bsw/statemachine.c ****                 
 170:source\bsw/statemachine.c ****                 //Now lets find the entry and exit actions
 171:source\bsw/statemachine.c ****                 uint16_t actionTableSize = me->actionTableSize;
 229              		.loc 1 171 0
 230 0086 B5F80CC0 		ldrh	ip, [r5, #12]
 231              	.LVL28:
 232              	.LBB5:
 172:source\bsw/statemachine.c ****                 for (uint16_t j = 0; j < actionTableSize; j++)
 233              		.loc 1 172 0
 234 008a 0023     		movs	r3, #0
 235              	.LVL29:
 236 008c DDF808B0 		ldr	fp, [sp, #8]
 237 0090 16E0     		b	.L14
 238              	.LVL30:
 239              	.L17:
 173:source\bsw/statemachine.c ****                 {
 174:source\bsw/statemachine.c ****                     if (currentState == (*me->actionTable)[j].state)
 240              		.loc 1 174 0
 241 0092 A968     		ldr	r1, [r5, #8]
 242 0094 1846     		mov	r0, r3
 243 0096 03EB430E 		add	lr, r3, r3, lsl #1
 244 009a 4FEA8E02 		lsl	r2, lr, #2
 245 009e 9646     		mov	lr, r2
 246 00a0 8A5C     		ldrb	r2, [r1, r2]	@ zero_extendqisi2
 247 00a2 9045     		cmp	r8, r2
 248 00a4 02D1     		bne	.L15
 175:source\bsw/statemachine.c ****                     {
 176:source\bsw/statemachine.c ****                         acExit = (*me->actionTable)[j].actionExit;
 249              		.loc 1 176 0
 250 00a6 8E44     		add	lr, lr, r1
 251 00a8 DEF808B0 		ldr	fp, [lr, #8]
 252              	.LVL31:
 253              	.L15:
 177:source\bsw/statemachine.c ****                     }
 178:source\bsw/statemachine.c ****                     if (toState == (*me->actionTable)[j].state)
 254              		.loc 1 178 0
 255 00ac 9742     		cmp	r7, r2
 256 00ae 05D1     		bne	.L16
 179:source\bsw/statemachine.c ****                     {
 180:source\bsw/statemachine.c ****                         acEntry = (*me->actionTable)[j].actionEntry;
 257              		.loc 1 180 0
 258 00b0 00EB4000 		add	r0, r0, r0, lsl #1
 259 00b4 8200     		lsls	r2, r0, #2
 260 00b6 1144     		add	r1, r1, r2
 261 00b8 4A68     		ldr	r2, [r1, #4]
 262 00ba 0192     		str	r2, [sp, #4]
 263              	.LVL32:
 264              	.L16:
 172:source\bsw/statemachine.c ****                 {
 265              		.loc 1 172 0 discriminator 2
 266 00bc 0133     		adds	r3, r3, #1
 267              	.LVL33:
 268 00be 9BB2     		uxth	r3, r3
 269              	.LVL34:
 270              	.L14:
 172:source\bsw/statemachine.c ****                 {
 271              		.loc 1 172 0 is_stmt 0 discriminator 1
ARM GAS  C:\Users\zakis\AppData\Local\Temp\ccUepUpg.s 			page 9


 272 00c0 6345     		cmp	r3, ip
 273 00c2 E6D3     		bcc	.L17
 274 00c4 5B46     		mov	r3, fp
 275              	.LVL35:
 276 00c6 CDF808B0 		str	fp, [sp, #8]
 277              	.LBE5:
 181:source\bsw/statemachine.c ****                     }
 182:source\bsw/statemachine.c ****                 }
 183:source\bsw/statemachine.c **** 
 184:source\bsw/statemachine.c ****                 //Lets call the actions
 185:source\bsw/statemachine.c ****                 if (0 != acExit) acExit();
 278              		.loc 1 185 0 is_stmt 1
 279 00ca 03B1     		cbz	r3, .L18
 280              		.loc 1 185 0 is_stmt 0 discriminator 1
 281 00cc D847     		blx	fp
 282              	.LVL36:
 283              	.L18:
 186:source\bsw/statemachine.c ****                 if (0 != acTransition) acTransition();
 284              		.loc 1 186 0 is_stmt 1
 285 00ce 039B     		ldr	r3, [sp, #12]
 286 00d0 03B1     		cbz	r3, .L19
 287              		.loc 1 186 0 is_stmt 0 discriminator 1
 288 00d2 9847     		blx	r3
 289              	.LVL37:
 290              	.L19:
 187:source\bsw/statemachine.c ****                 if (0 != acEntry) acEntry();
 291              		.loc 1 187 0 is_stmt 1
 292 00d4 019B     		ldr	r3, [sp, #4]
 293 00d6 03B1     		cbz	r3, .L12
 294              		.loc 1 187 0 is_stmt 0 discriminator 1
 295 00d8 9847     		blx	r3
 296              	.LVL38:
 297              	.L12:
 298              	.LBE4:
 158:source\bsw/statemachine.c ****     {
 299              		.loc 1 158 0 is_stmt 1 discriminator 2
 300 00da 0134     		adds	r4, r4, #1
 301              	.LVL39:
 302 00dc A4B2     		uxth	r4, r4
 303              	.LVL40:
 304              	.L11:
 158:source\bsw/statemachine.c ****     {
 305              		.loc 1 158 0 is_stmt 0 discriminator 1
 306 00de A145     		cmp	r9, r4
 307 00e0 B5D8     		bhi	.L20
 308              	.LBE3:
 188:source\bsw/statemachine.c ****                 
 189:source\bsw/statemachine.c **** 
 190:source\bsw/statemachine.c ****                 
 191:source\bsw/statemachine.c ****                 //If we want to fire only one transition, the break must be actiavted
 192:source\bsw/statemachine.c ****                 //Note: More than one transition only make sense, if the taregt states are identica
 193:source\bsw/statemachine.c ****                 //This must be ensured by the user
 194:source\bsw/statemachine.c ****                 //break;
 195:source\bsw/statemachine.c ****             }
 196:source\bsw/statemachine.c ****         }
 197:source\bsw/statemachine.c ****     }
 198:source\bsw/statemachine.c ****     
ARM GAS  C:\Users\zakis\AppData\Local\Temp\ccUepUpg.s 			page 10


 199:source\bsw/statemachine.c ****     //Copy local toState to external State Variable
 200:source\bsw/statemachine.c ****     me->state = toState;
 309              		.loc 1 200 0 is_stmt 1
 310 00e2 AF73     		strb	r7, [r5, #14]
 201:source\bsw/statemachine.c ****     
 202:source\bsw/statemachine.c ****  
 203:source\bsw/statemachine.c ****     return RC_SUCCESS;
 311              		.loc 1 203 0
 312 00e4 0020     		movs	r0, #0
 313 00e6 07E0     		b	.L9
 314              	.LVL41:
 315              	.L21:
 140:source\bsw/statemachine.c ****     }
 316              		.loc 1 140 0
 317 00e8 6FF00400 		mvn	r0, #4
 318              	.LVL42:
 319 00ec 04E0     		b	.L9
 320              	.LVL43:
 321              	.L23:
 154:source\bsw/statemachine.c ****     }
 322              		.loc 1 154 0
 323 00ee 6FF01600 		mvn	r0, #22
 324              	.LVL44:
 325 00f2 01E0     		b	.L9
 326              	.LVL45:
 327              	.L24:
 328 00f4 6FF01600 		mvn	r0, #22
 329              	.LVL46:
 330              	.L9:
 204:source\bsw/statemachine.c **** }
 331              		.loc 1 204 0
 332 00f8 05B0     		add	sp, sp, #20
 333              		.cfi_def_cfa_offset 36
 334              		@ sp needed
 335 00fa BDE8F08F 		pop	{r4, r5, r6, r7, r8, r9, r10, fp, pc}
 336              		.cfi_endproc
 337              	.LFE2:
 338              		.size	STATE_processEvent, .-STATE_processEvent
 339 00fe 00BF     		.text
 340              	.Letext0:
 341              		.file 2 "source\\bsw\\global.h"
 342              		.file 3 "source\\bsw\\statemachine_type.h"
 343              		.file 4 "source\\bsw\\statemachine.h"