ARM GAS  C:\Users\zakis\AppData\Local\Temp\ccEVpWju.s 			page 1


   1              		.syntax unified
   2              		.cpu cortex-m3
   3              		.fpu softvfp
   4              		.eabi_attribute 20, 1
   5              		.eabi_attribute 21, 1
   6              		.eabi_attribute 23, 3
   7              		.eabi_attribute 24, 1
   8              		.eabi_attribute 25, 1
   9              		.eabi_attribute 26, 1
  10              		.eabi_attribute 30, 1
  11              		.eabi_attribute 34, 1
  12              		.eabi_attribute 18, 4
  13              		.thumb
  14              		.syntax unified
  15              		.file	"swc_control.c"
  16              		.text
  17              	.Ltext0:
  18              		.cfi_sections	.debug_frame
  19              		.section	.text.CLOCK_increment1Minute,"ax",%progbits
  20              		.align	2
  21              		.thumb
  22              		.thumb_func
  23              		.type	CLOCK_increment1Minute, %function
  24              	CLOCK_increment1Minute:
  25              	.LFB153:
  26              		.file 1 "source\\asw\\swc_control.c"
   1:source\asw/swc_control.c **** /*
   2:source\asw/swc_control.c ****  * Filename: swc_control.c
   3:source\asw/swc_control.c ****  *
   4:source\asw/swc_control.c ****  * Author: Autogenerated by H-DA RTE Generator, (c) Prof. Fromm
   5:source\asw/swc_control.c ****  *
   6:source\asw/swc_control.c ****  * description: Software component
   7:source\asw/swc_control.c ****  * name: swc_control
   8:source\asw/swc_control.c ****  * shortname: control
   9:source\asw/swc_control.c ****  *
  10:source\asw/swc_control.c ****  */
  11:source\asw/swc_control.c **** 
  12:source\asw/swc_control.c **** #include "project.h"
  13:source\asw/swc_control.c **** #include "global.h"
  14:source\asw/swc_control.c **** #include "rte.h"
  15:source\asw/swc_control.c **** #include "rte_types.h"
  16:source\asw/swc_control.c **** #include "swc_control.h"
  17:source\asw/swc_control.c **** 
  18:source\asw/swc_control.c **** 
  19:source\asw/swc_control.c **** 
  20:source\asw/swc_control.c **** /* USER CODE START SWC_CONTROL_INCLUDE */
  21:source\asw/swc_control.c **** 
  22:source\asw/swc_control.c **** /* USER CODE END SWC_CONTROL_INCLUDE */
  23:source\asw/swc_control.c **** 
  24:source\asw/swc_control.c **** 
  25:source\asw/swc_control.c **** #include "sp_common.h"
  26:source\asw/swc_control.c **** 
  27:source\asw/swc_control.c **** /* USER CODE START SWC_CONTROL_USERDEFINITIONS */
  28:source\asw/swc_control.c **** 
  29:source\asw/swc_control.c **** #include "statemachine.h"
  30:source\asw/swc_control.c **** #include "statemachine_clock.h"
  31:source\asw/swc_control.c **** 
ARM GAS  C:\Users\zakis\AppData\Local\Temp\ccEVpWju.s 			page 2


  32:source\asw/swc_control.c **** /* USER CODE END SWC_CONTROL_USERDEFINITIONS */
  33:source\asw/swc_control.c **** 
  34:source\asw/swc_control.c **** 
  35:source\asw/swc_control.c **** 
  36:source\asw/swc_control.c **** /*
  37:source\asw/swc_control.c ****  * component: swc_control
  38:source\asw/swc_control.c ****  * cycletime: 0
  39:source\asw/swc_control.c ****  * description: Runnable
  40:source\asw/swc_control.c ****  * events: ev_events_onData
  41:source\asw/swc_control.c ****  * name: CONTROL_runStateMachine_run
  42:source\asw/swc_control.c ****  * shortname: runStateMachine
  43:source\asw/swc_control.c ****  * signalIN: so_events
  44:source\asw/swc_control.c ****  * signalOUT: so_clockData
  45:source\asw/swc_control.c ****  * task: tsk_control
  46:source\asw/swc_control.c ****  */
  47:source\asw/swc_control.c **** void CONTROL_runStateMachine_run(RTE_event ev){
  48:source\asw/swc_control.c **** 	
  49:source\asw/swc_control.c **** 	/* USER CODE START CONTROL_runStateMachine_run */
  50:source\asw/swc_control.c ****     SC_EVENTS_data_t eventData = SC_EVENTS_INIT_DATA;
  51:source\asw/swc_control.c ****     RTE_SC_EVENTS_getThreadSafe(&SO_EVENTS_signal, &eventData);
  52:source\asw/swc_control.c ****     
  53:source\asw/swc_control.c ****     STATE_event_t event = eventData.m_event;
  54:source\asw/swc_control.c ****     
  55:source\asw/swc_control.c ****     STATE_processEvent(&CLOCK_CONTAINER_FSM, event);
  56:source\asw/swc_control.c **** 
  57:source\asw/swc_control.c ****     /* USER CODE END CONTROL_runStateMachine_run */
  58:source\asw/swc_control.c **** }
  59:source\asw/swc_control.c **** 
  60:source\asw/swc_control.c **** /* USER CODE START SWC_CONTROL_FUNCTIONS */
  61:source\asw/swc_control.c **** 
  62:source\asw/swc_control.c **** static void CLOCK_dispatch_KL_Hours(){
  63:source\asw/swc_control.c ****     
  64:source\asw/swc_control.c ****     CLOCK_DISPATCH_WRAPPER(WIDGET_HOUR, EV_KEYLEFT);
  65:source\asw/swc_control.c ****     return;
  66:source\asw/swc_control.c **** 
  67:source\asw/swc_control.c **** }
  68:source\asw/swc_control.c **** static void CLOCK_dispatch_KL_Mins(){
  69:source\asw/swc_control.c ****     CLOCK_DISPATCH_WRAPPER(WIDGET_MIN, EV_KEYLEFT);
  70:source\asw/swc_control.c ****     return;
  71:source\asw/swc_control.c **** 
  72:source\asw/swc_control.c **** }
  73:source\asw/swc_control.c **** static void CLOCK_dispatch_KL_HoursMins(){
  74:source\asw/swc_control.c ****     CLOCK_DISPATCH_WRAPPER(WIDGET_HOUR, EV_KEYLEFT);
  75:source\asw/swc_control.c ****     CLOCK_DISPATCH_WRAPPER(WIDGET_MIN, EV_KEYLEFT);
  76:source\asw/swc_control.c ****     return;
  77:source\asw/swc_control.c **** 
  78:source\asw/swc_control.c **** }
  79:source\asw/swc_control.c **** 
  80:source\asw/swc_control.c **** static void CLOCK_dispatch_KR_Hours(){
  81:source\asw/swc_control.c ****     CLOCK_DISPATCH_WRAPPER(WIDGET_HOUR, EV_KEYRIGHT);
  82:source\asw/swc_control.c ****     return;
  83:source\asw/swc_control.c **** 
  84:source\asw/swc_control.c **** }
  85:source\asw/swc_control.c **** static void CLOCK_dispatch_KR_Mins(){
  86:source\asw/swc_control.c ****     CLOCK_DISPATCH_WRAPPER(WIDGET_MIN, EV_KEYRIGHT);
  87:source\asw/swc_control.c ****     return;
  88:source\asw/swc_control.c **** 
ARM GAS  C:\Users\zakis\AppData\Local\Temp\ccEVpWju.s 			page 3


  89:source\asw/swc_control.c **** }
  90:source\asw/swc_control.c **** static void CLOCK_dispatch_KRLP_Hours(){
  91:source\asw/swc_control.c ****     CLOCK_DISPATCH_WRAPPER(WIDGET_HOUR, EV_KEYRIGHTLONGPRESS);
  92:source\asw/swc_control.c ****     return;
  93:source\asw/swc_control.c **** 
  94:source\asw/swc_control.c **** }
  95:source\asw/swc_control.c **** static void CLOCK_dispatch_KRLP_Mins(){
  96:source\asw/swc_control.c ****     CLOCK_DISPATCH_WRAPPER(WIDGET_MIN, EV_KEYRIGHTLONGPRESS);
  97:source\asw/swc_control.c ****     return;
  98:source\asw/swc_control.c **** 
  99:source\asw/swc_control.c **** }
 100:source\asw/swc_control.c **** 
 101:source\asw/swc_control.c **** static void CLOCK_dispatch_250MS_Hours(){
 102:source\asw/swc_control.c ****     CLOCK_DISPATCH_WRAPPER(WIDGET_HOUR, EV_250MS);
 103:source\asw/swc_control.c ****     return;
 104:source\asw/swc_control.c **** 
 105:source\asw/swc_control.c **** }
 106:source\asw/swc_control.c **** static void CLOCK_dispatch_250MS_Mins(){
 107:source\asw/swc_control.c ****     CLOCK_DISPATCH_WRAPPER(WIDGET_MIN, EV_250MS);
 108:source\asw/swc_control.c ****     return;
 109:source\asw/swc_control.c **** 
 110:source\asw/swc_control.c **** }
 111:source\asw/swc_control.c **** 
 112:source\asw/swc_control.c **** 
 113:source\asw/swc_control.c **** 
 114:source\asw/swc_control.c **** 
 115:source\asw/swc_control.c **** static void CLOCK_increment1Minute(){
  27              		.loc 1 115 0
  28              		.cfi_startproc
  29              		@ args = 0, pretend = 0, frame = 24
  30              		@ frame_needed = 0, uses_anonymous_args = 0
  31 0000 30B5     		push	{r4, r5, lr}
  32              		.cfi_def_cfa_offset 12
  33              		.cfi_offset 4, -12
  34              		.cfi_offset 5, -8
  35              		.cfi_offset 14, -4
  36 0002 87B0     		sub	sp, sp, #28
  37              		.cfi_def_cfa_offset 40
  38              	.LVL0:
  39              	.LBB29:
  40              	.LBB30:
  41              		.file 2 ".\\source\\rte/sc_clockdata.h"
   1:.\source\rte/sc_clockdata.h **** 
   2:.\source\rte/sc_clockdata.h **** 
   3:.\source\rte/sc_clockdata.h **** /**
   4:.\source\rte/sc_clockdata.h ****  *  file    SC_CLOCKDATA_signal.h
   5:.\source\rte/sc_clockdata.h ****  *
   6:.\source\rte/sc_clockdata.h ****  *  brief   signal base class for signal sc_clockdata
   7:.\source\rte/sc_clockdata.h ****  *
   8:.\source\rte/sc_clockdata.h ****  *  author  Autogenerated, Peter Fromm       <peter.fromm@h-da.de>
   9:.\source\rte/sc_clockdata.h ****  *
  10:.\source\rte/sc_clockdata.h ****  * description: Signalclass
  11:.\source\rte/sc_clockdata.h ****  * name: sc_clockData
  12:.\source\rte/sc_clockdata.h ****  * shortname: clockData
  13:.\source\rte/sc_clockdata.h ****  *
  14:.\source\rte/sc_clockdata.h ****  */
  15:.\source\rte/sc_clockdata.h **** 
ARM GAS  C:\Users\zakis\AppData\Local\Temp\ccEVpWju.s 			page 4


  16:.\source\rte/sc_clockdata.h **** 
  17:.\source\rte/sc_clockdata.h **** 
  18:.\source\rte/sc_clockdata.h **** #ifndef SC_CLOCKDATA_SIGNAL_H_INCLUDED
  19:.\source\rte/sc_clockdata.h **** #define SC_CLOCKDATA_SIGNAL_H_INCLUDED
  20:.\source\rte/sc_clockdata.h **** 
  21:.\source\rte/sc_clockdata.h **** /*================================================[ public includes  ]=============================
  22:.\source\rte/sc_clockdata.h **** #include "global.h"
  23:.\source\rte/sc_clockdata.h **** #include "project.h"
  24:.\source\rte/sc_clockdata.h **** #include "rte.h"
  25:.\source\rte/sc_clockdata.h **** #include "rte_types.h"
  26:.\source\rte/sc_clockdata.h **** 
  27:.\source\rte/sc_clockdata.h **** #include "sc_clockdata_type.h"
  28:.\source\rte/sc_clockdata.h **** 
  29:.\source\rte/sc_clockdata.h **** 
  30:.\source\rte/sc_clockdata.h **** /**************************************************************************************************
  31:.\source\rte/sc_clockdata.h **** /* The driver API block																						*/
  32:.\source\rte/sc_clockdata.h **** /**************************************************************************************************
  33:.\source\rte/sc_clockdata.h ****                                                                                                    
  34:.\source\rte/sc_clockdata.h **** /**
  35:.\source\rte/sc_clockdata.h ****  *  Definition of function types for driver interfaces.
  36:.\source\rte/sc_clockdata.h ****  *  I-Port
  37:.\source\rte/sc_clockdata.h ****  */
  38:.\source\rte/sc_clockdata.h **** typedef RC_t (*SC_CLOCKDATA_driverIn_t)(SC_CLOCKDATA_data_t * const);
  39:.\source\rte/sc_clockdata.h **** 
  40:.\source\rte/sc_clockdata.h **** /**
  41:.\source\rte/sc_clockdata.h ****  *  Definition of function types for driver interfaces.
  42:.\source\rte/sc_clockdata.h ****  *  O-Port
  43:.\source\rte/sc_clockdata.h ****  */
  44:.\source\rte/sc_clockdata.h **** typedef RC_t (*SC_CLOCKDATA_driverOut_t)( const SC_CLOCKDATA_data_t * const);
  45:.\source\rte/sc_clockdata.h **** 
  46:.\source\rte/sc_clockdata.h **** 
  47:.\source\rte/sc_clockdata.h **** /**************************************************************************************************
  48:.\source\rte/sc_clockdata.h **** /* The signal configuration API block																				*/
  49:.\source\rte/sc_clockdata.h **** /**************************************************************************************************
  50:.\source\rte/sc_clockdata.h **** 
  51:.\source\rte/sc_clockdata.h **** /**
  52:.\source\rte/sc_clockdata.h ****  * Instances of the struct SC_CLOCKDATA_cfg_t represent the signal object configuration.
  53:.\source\rte/sc_clockdata.h ****  */
  54:.\source\rte/sc_clockdata.h **** struct SC_CLOCKDATA_cfg_s
  55:.\source\rte/sc_clockdata.h **** {
  56:.\source\rte/sc_clockdata.h ****     /**
  57:.\source\rte/sc_clockdata.h ****      * Function pointer to the input driver
  58:.\source\rte/sc_clockdata.h ****      */
  59:.\source\rte/sc_clockdata.h ****     SC_CLOCKDATA_driverIn_t const inDriver;
  60:.\source\rte/sc_clockdata.h **** 
  61:.\source\rte/sc_clockdata.h ****     /**
  62:.\source\rte/sc_clockdata.h ****      * Function pointer to the output driver table
  63:.\source\rte/sc_clockdata.h ****      */
  64:.\source\rte/sc_clockdata.h ****    SC_CLOCKDATA_driverOut_t const outDriver;
  65:.\source\rte/sc_clockdata.h ****    
  66:.\source\rte/sc_clockdata.h ****     /**
  67:.\source\rte/sc_clockdata.h ****      * Event onUpdate
  68:.\source\rte/sc_clockdata.h ****      */
  69:.\source\rte/sc_clockdata.h ****     EventMaskType const evOnUpdate;
  70:.\source\rte/sc_clockdata.h ****     
  71:.\source\rte/sc_clockdata.h ****     
  72:.\source\rte/sc_clockdata.h ****     /**
ARM GAS  C:\Users\zakis\AppData\Local\Temp\ccEVpWju.s 			page 5


  73:.\source\rte/sc_clockdata.h ****      * Event onError
  74:.\source\rte/sc_clockdata.h ****      */
  75:.\source\rte/sc_clockdata.h ****     EventMaskType const evOnError;
  76:.\source\rte/sc_clockdata.h ****     
  77:.\source\rte/sc_clockdata.h ****     /**
  78:.\source\rte/sc_clockdata.h ****      * Task Count onUpdate
  79:.\source\rte/sc_clockdata.h ****      */
  80:.\source\rte/sc_clockdata.h ****     size_t const onUpdateTaskCount;
  81:.\source\rte/sc_clockdata.h **** 
  82:.\source\rte/sc_clockdata.h ****     /**
  83:.\source\rte/sc_clockdata.h ****      * Task List onUpdate
  84:.\source\rte/sc_clockdata.h ****      */
  85:.\source\rte/sc_clockdata.h ****     TaskTypeArray* const onUpdateTasks;
  86:.\source\rte/sc_clockdata.h ****     
  87:.\source\rte/sc_clockdata.h ****     /**
  88:.\source\rte/sc_clockdata.h ****      * Task Count onError
  89:.\source\rte/sc_clockdata.h ****      */
  90:.\source\rte/sc_clockdata.h ****     size_t const onErrorTaskCount;
  91:.\source\rte/sc_clockdata.h **** 
  92:.\source\rte/sc_clockdata.h ****     /**
  93:.\source\rte/sc_clockdata.h ****      * Task List onError
  94:.\source\rte/sc_clockdata.h ****      */
  95:.\source\rte/sc_clockdata.h ****     TaskTypeArray* const onErrorTasks;
  96:.\source\rte/sc_clockdata.h **** 	
  97:.\source\rte/sc_clockdata.h **** 	
  98:.\source\rte/sc_clockdata.h **** 	/**
  99:.\source\rte/sc_clockdata.h **** 	 * Ressourse is active? We need an additional boolean as a ressource value 0 is valid.
 100:.\source\rte/sc_clockdata.h **** 	 */
 101:.\source\rte/sc_clockdata.h **** 	 boolean_t const resourceActive;
 102:.\source\rte/sc_clockdata.h **** 	 
 103:.\source\rte/sc_clockdata.h **** 	/**
 104:.\source\rte/sc_clockdata.h **** 	 * Ressourse 
 105:.\source\rte/sc_clockdata.h **** 	 */
 106:.\source\rte/sc_clockdata.h **** 	 ResourceType const resource;
 107:.\source\rte/sc_clockdata.h **** 
 108:.\source\rte/sc_clockdata.h **** };                                                                                                 
 109:.\source\rte/sc_clockdata.h **** typedef const struct SC_CLOCKDATA_cfg_s SC_CLOCKDATA_cfg_t;
 110:.\source\rte/sc_clockdata.h ****                               
 111:.\source\rte/sc_clockdata.h **** /**************************************************************************************************
 112:.\source\rte/sc_clockdata.h **** /* The data interface block																							*/
 113:.\source\rte/sc_clockdata.h **** /**************************************************************************************************
 114:.\source\rte/sc_clockdata.h **** 
 115:.\source\rte/sc_clockdata.h ****                                                                                                    
 116:.\source\rte/sc_clockdata.h **** 							  
 117:.\source\rte/sc_clockdata.h **** /**
 118:.\source\rte/sc_clockdata.h ****  * Instances of the struct SC_CLOCKDATA_t represent the signal objects.
 119:.\source\rte/sc_clockdata.h ****  * A signal object contains the current application value 'value' as well as relevant meta data.
 120:.\source\rte/sc_clockdata.h ****  */
 121:.\source\rte/sc_clockdata.h **** struct SC_CLOCKDATA_s
 122:.\source\rte/sc_clockdata.h **** {                                                                                                  
 123:.\source\rte/sc_clockdata.h **** 
 124:.\source\rte/sc_clockdata.h **** 	/**
 125:.\source\rte/sc_clockdata.h **** 	 * Data buffer for the application value
 126:.\source\rte/sc_clockdata.h **** 	 */
 127:.\source\rte/sc_clockdata.h ****     SC_CLOCKDATA_data_t value;
 128:.\source\rte/sc_clockdata.h **** 
 129:.\source\rte/sc_clockdata.h ****     /**
ARM GAS  C:\Users\zakis\AppData\Local\Temp\ccEVpWju.s 			page 6


 130:.\source\rte/sc_clockdata.h ****      * Current signal status
 131:.\source\rte/sc_clockdata.h ****      */
 132:.\source\rte/sc_clockdata.h ****     RTE_signalStatus_t status;
 133:.\source\rte/sc_clockdata.h **** 
 134:.\source\rte/sc_clockdata.h ****     /**
 135:.\source\rte/sc_clockdata.h ****      * Current age of the signal (in calling cycles)
 136:.\source\rte/sc_clockdata.h ****      */
 137:.\source\rte/sc_clockdata.h ****     uint32_t age;
 138:.\source\rte/sc_clockdata.h **** 
 139:.\source\rte/sc_clockdata.h ****     /**
 140:.\source\rte/sc_clockdata.h ****      * Pointer to the signal configuration
 141:.\source\rte/sc_clockdata.h ****      */
 142:.\source\rte/sc_clockdata.h **** 	const SC_CLOCKDATA_cfg_t * const    pSigCfg;
 143:.\source\rte/sc_clockdata.h **** 
 144:.\source\rte/sc_clockdata.h **** };                                                                                                 
 145:.\source\rte/sc_clockdata.h **** typedef struct SC_CLOCKDATA_s SC_CLOCKDATA_t;
 146:.\source\rte/sc_clockdata.h **** 
 147:.\source\rte/sc_clockdata.h **** /**************************************************************************************************
 148:.\source\rte/sc_clockdata.h **** /* Signal initialisation   																							*/
 149:.\source\rte/sc_clockdata.h **** /**************************************************************************************************
 150:.\source\rte/sc_clockdata.h **** 
 151:.\source\rte/sc_clockdata.h **** /**
 152:.\source\rte/sc_clockdata.h ****  * Initializes a signal instance with a passed init value.
 153:.\source\rte/sc_clockdata.h ****  * Depending on the configured conversion or scaling function the raw_value will be calculated.
 154:.\source\rte/sc_clockdata.h ****  * Signal status will change from RTE_SIGNALSTATUS_STARTUP to RTE_SIGNALSTATUS_INITIALIZED.
 155:.\source\rte/sc_clockdata.h ****  *
 156:.\source\rte/sc_clockdata.h ****  * @param  SC_CLOCKDATA_t * const signal: Pointer to the signal object which will be initialised
 157:.\source\rte/sc_clockdata.h ****  * @return RC_t: standard return code, currently only RC_SUCCESS
 158:.\source\rte/sc_clockdata.h ****  *
 159:.\source\rte/sc_clockdata.h ****  **/
 160:.\source\rte/sc_clockdata.h **** inline RC_t RTE_SC_CLOCKDATA_init( SC_CLOCKDATA_t * const signal )
 161:.\source\rte/sc_clockdata.h **** {                                                                                                  
 162:.\source\rte/sc_clockdata.h **** 
 163:.\source\rte/sc_clockdata.h ****    RC_t ret = RC_SUCCESS;
 164:.\source\rte/sc_clockdata.h **** 
 165:.\source\rte/sc_clockdata.h ****    //Set value and raw value
 166:.\source\rte/sc_clockdata.h ****    signal->value  = SC_CLOCKDATA_INIT_DATA;
 167:.\source\rte/sc_clockdata.h ****    signal->age    = 0;
 168:.\source\rte/sc_clockdata.h ****    signal->status = RTE_SIGNALSTATUS_INITIALIZED;
 169:.\source\rte/sc_clockdata.h **** 
 170:.\source\rte/sc_clockdata.h ****    return ret;
 171:.\source\rte/sc_clockdata.h **** }
 172:.\source\rte/sc_clockdata.h **** 
 173:.\source\rte/sc_clockdata.h **** /**************************************************************************************************
 174:.\source\rte/sc_clockdata.h **** /* Status and timeout control																						*/
 175:.\source\rte/sc_clockdata.h **** /**************************************************************************************************
 176:.\source\rte/sc_clockdata.h **** 
 177:.\source\rte/sc_clockdata.h **** /**
 178:.\source\rte/sc_clockdata.h ****  *  Returns the current signal status of the passed signal instance.
 179:.\source\rte/sc_clockdata.h ****  *
 180:.\source\rte/sc_clockdata.h ****  * @param  SC_CLOCKDATA_t * const signal: Pointer to the signal object
 181:.\source\rte/sc_clockdata.h ****  * @return  sig_status_t: The current signal status
 182:.\source\rte/sc_clockdata.h ****  *
 183:.\source\rte/sc_clockdata.h ****  **/
 184:.\source\rte/sc_clockdata.h **** inline RTE_signalStatus_t RTE_SC_CLOCKDATA_getStatus( const SC_CLOCKDATA_t * const signal )
 185:.\source\rte/sc_clockdata.h **** {
 186:.\source\rte/sc_clockdata.h ****    return signal->status;
ARM GAS  C:\Users\zakis\AppData\Local\Temp\ccEVpWju.s 			page 7


 187:.\source\rte/sc_clockdata.h **** }
 188:.\source\rte/sc_clockdata.h **** 
 189:.\source\rte/sc_clockdata.h **** 
 190:.\source\rte/sc_clockdata.h **** /**
 191:.\source\rte/sc_clockdata.h ****  *  Sets a new signal status of the passed signal instance by passing the new status.
 192:.\source\rte/sc_clockdata.h ****  *
 193:.\source\rte/sc_clockdata.h ****  * @param  SC_CLOCKDATA_t * const signal: Pointer to the signal object
 194:.\source\rte/sc_clockdata.h ****  * @param  const sig_status_t status: New signal status
 195:.\source\rte/sc_clockdata.h ****  * @return RC_t: standard return code, currently only RC_SUCCESS
 196:.\source\rte/sc_clockdata.h ****  *
 197:.\source\rte/sc_clockdata.h ****  */
 198:.\source\rte/sc_clockdata.h **** inline RC_t RTE_SC_CLOCKDATA_setStatus( SC_CLOCKDATA_t * const signal, const RTE_signalStatus_t sta
 199:.\source\rte/sc_clockdata.h **** {
 200:.\source\rte/sc_clockdata.h ****    signal->status = status;
 201:.\source\rte/sc_clockdata.h ****    size_t taskNum=0;
 202:.\source\rte/sc_clockdata.h ****    
 203:.\source\rte/sc_clockdata.h ****    //Fire error events in case of invalid state
 204:.\source\rte/sc_clockdata.h ****    if (signal->status == RTE_SIGNALSTATUS_INVALID)
 205:.\source\rte/sc_clockdata.h ****    {
 206:.\source\rte/sc_clockdata.h **** 	    //Pointer to the Taskarray, containing the tasks receiving the onUpdate events
 207:.\source\rte/sc_clockdata.h **** 		TaskTypeArray* pTaskArray = signal->pSigCfg->onErrorTasks;
 208:.\source\rte/sc_clockdata.h **** 
 209:.\source\rte/sc_clockdata.h **** 		if (0 != signal->pSigCfg->evOnError && NULL != pTaskArray){
 210:.\source\rte/sc_clockdata.h **** 			for( taskNum=0 ; taskNum < signal->pSigCfg->onErrorTaskCount ;taskNum++){
 211:.\source\rte/sc_clockdata.h **** 				TaskType task = (*pTaskArray)[taskNum];
 212:.\source\rte/sc_clockdata.h **** 				SetEvent( task, signal->pSigCfg->evOnError);
 213:.\source\rte/sc_clockdata.h **** 			}
 214:.\source\rte/sc_clockdata.h **** 		}
 215:.\source\rte/sc_clockdata.h ****    }
 216:.\source\rte/sc_clockdata.h ****    
 217:.\source\rte/sc_clockdata.h ****    return RC_SUCCESS;
 218:.\source\rte/sc_clockdata.h **** }
 219:.\source\rte/sc_clockdata.h **** 
 220:.\source\rte/sc_clockdata.h **** 
 221:.\source\rte/sc_clockdata.h **** /**
 222:.\source\rte/sc_clockdata.h ****  * Returns the count of refreshing trials (refresh, set or set_raw) that failed.
 223:.\source\rte/sc_clockdata.h ****  * Prerquisite: The signal is refreshed cyclically
 224:.\source\rte/sc_clockdata.h ****  *
 225:.\source\rte/sc_clockdata.h ****  * @param  SC_CLOCKDATA_t * const signal: Pointer to the signal object
 226:.\source\rte/sc_clockdata.h ****  * @return uint32_t: Number of cycles since the signal has been updated for the last time
 227:.\source\rte/sc_clockdata.h ****  */
 228:.\source\rte/sc_clockdata.h **** inline uint32_t RTE_SC_CLOCKDATA_getAge( const SC_CLOCKDATA_t * const signal )
 229:.\source\rte/sc_clockdata.h **** {
 230:.\source\rte/sc_clockdata.h ****    return signal->age;
 231:.\source\rte/sc_clockdata.h **** }
 232:.\source\rte/sc_clockdata.h **** 
 233:.\source\rte/sc_clockdata.h **** /**
 234:.\source\rte/sc_clockdata.h ****  * Should be called by application or driver if no new value can be provided.
 235:.\source\rte/sc_clockdata.h ****  * @param  SC_CLOCKDATA_t * const signal: Pointer to the signal object
 236:.\source\rte/sc_clockdata.h ****  * @param uint32_t increment: incrementvalue, typically in [ms]
 237:.\source\rte/sc_clockdata.h ****  * @return void
 238:.\source\rte/sc_clockdata.h ****  */
 239:.\source\rte/sc_clockdata.h **** inline void RTE_SC_CLOCKDATA_incAge(  SC_CLOCKDATA_t * const signal , uint32_t increment)
 240:.\source\rte/sc_clockdata.h **** {
 241:.\source\rte/sc_clockdata.h **** 	   //Hack....
 242:.\source\rte/sc_clockdata.h **** 	   if ( 0xFFFF0000 > (signal->age + increment) )
 243:.\source\rte/sc_clockdata.h **** 	   {
ARM GAS  C:\Users\zakis\AppData\Local\Temp\ccEVpWju.s 			page 8


 244:.\source\rte/sc_clockdata.h **** 	      signal->age += increment;
 245:.\source\rte/sc_clockdata.h **** 	   }
 246:.\source\rte/sc_clockdata.h **** }
 247:.\source\rte/sc_clockdata.h **** 
 248:.\source\rte/sc_clockdata.h **** 
 249:.\source\rte/sc_clockdata.h **** /**************************************************************************************************
 250:.\source\rte/sc_clockdata.h **** /* Application Data read/write Interface																			*/
 251:.\source\rte/sc_clockdata.h **** /**************************************************************************************************
 252:.\source\rte/sc_clockdata.h **** 
 253:.\source\rte/sc_clockdata.h **** /**
 254:.\source\rte/sc_clockdata.h ****  * Returns the current application value as pointer to the signal payload.
 255:.\source\rte/sc_clockdata.h ****  * Careful: This is not threadsafe!!!
 256:.\source\rte/sc_clockdata.h ****  *
 257:.\source\rte/sc_clockdata.h ****  * @param  SC_CLOCKDATA_t * const signal: Pointer to the signal object
 258:.\source\rte/sc_clockdata.h ****  * @return sc_clockdata_data_t*: pointer to the current value of the application data buffer
 259:.\source\rte/sc_clockdata.h ****  *
 260:.\source\rte/sc_clockdata.h ****  **/
 261:.\source\rte/sc_clockdata.h **** inline SC_CLOCKDATA_data_t* RTE_SC_CLOCKDATA_getPtr( SC_CLOCKDATA_t * const signal )
 262:.\source\rte/sc_clockdata.h **** {               
 263:.\source\rte/sc_clockdata.h ****    //Todo: Critical region cannot be protected using return values																						
 264:.\source\rte/sc_clockdata.h ****    return &(signal->value);                                                                        
 265:.\source\rte/sc_clockdata.h **** }
 266:.\source\rte/sc_clockdata.h **** 
 267:.\source\rte/sc_clockdata.h **** /**
 268:.\source\rte/sc_clockdata.h ****  * Returns the current application value of the passed signal instance.
 269:.\source\rte/sc_clockdata.h ****  *
 270:.\source\rte/sc_clockdata.h ****  * @param  SC_CLOCKDATA_t * const signal: Pointer to the signal object
 271:.\source\rte/sc_clockdata.h ****  * @return sc_clockdata_data_t: current value of the application data buffer
 272:.\source\rte/sc_clockdata.h ****  *
 273:.\source\rte/sc_clockdata.h ****  **/
 274:.\source\rte/sc_clockdata.h **** inline SC_CLOCKDATA_data_t RTE_SC_CLOCKDATA_get( const SC_CLOCKDATA_t * const signal )
 275:.\source\rte/sc_clockdata.h **** {               
 276:.\source\rte/sc_clockdata.h ****    //Todo: Critical region cannot be protected using return values																						
 277:.\source\rte/sc_clockdata.h ****    return signal->value;                                                                           
 278:.\source\rte/sc_clockdata.h **** }                                                                                                  
 279:.\source\rte/sc_clockdata.h ****                                                                                                    
 280:.\source\rte/sc_clockdata.h **** /**
 281:.\source\rte/sc_clockdata.h ****  * Returns the current application value of the passed signal instance threadsafe.
 282:.\source\rte/sc_clockdata.h ****  *
 283:.\source\rte/sc_clockdata.h ****  * @param  SC_CLOCKDATA_t * const signal: Pointer to the signal object
 284:.\source\rte/sc_clockdata.h ****  * @param  SC_CLOCKDATA_data_t* data: Pointer to the return data Pointer to the signal object
 285:.\source\rte/sc_clockdata.h ****  * @return RC_SUCCESS
 286:.\source\rte/sc_clockdata.h ****  *
 287:.\source\rte/sc_clockdata.h ****  **/
 288:.\source\rte/sc_clockdata.h **** inline RC_t RTE_SC_CLOCKDATA_getThreadSafe( const SC_CLOCKDATA_t * const signal, SC_CLOCKDATA_data_
 289:.\source\rte/sc_clockdata.h **** {    
 290:.\source\rte/sc_clockdata.h ****    if (TRUE == signal->pSigCfg->resourceActive) GetResource(signal->pSigCfg->resource);
  42              		.loc 2 290 0
  43 0004 364B     		ldr	r3, .L12
  44 0006 1B69     		ldr	r3, [r3, #16]
  45 0008 93F82020 		ldrb	r2, [r3, #32]	@ zero_extendqisi2
  46 000c 012A     		cmp	r2, #1
  47 000e 02D1     		bne	.L2
  48 0010 586A     		ldr	r0, [r3, #36]
  49 0012 FFF7FEFF 		bl	EE_oo_GetResource
  50              	.LVL1:
  51              	.L2:
ARM GAS  C:\Users\zakis\AppData\Local\Temp\ccEVpWju.s 			page 9


 291:.\source\rte/sc_clockdata.h ****    *data = signal->value;
  52              		.loc 2 291 0
  53 0016 324C     		ldr	r4, .L12
  54 0018 03AB     		add	r3, sp, #12
  55              	.LVL2:
  56 001a 94E80700 		ldmia	r4, {r0, r1, r2}
  57 001e 03C3     		stmia	r3!, {r0, r1}
  58              	.LVL3:
  59 0020 23F8022B 		strh	r2, [r3], #2	@ movhi
  60              	.LVL4:
  61 0024 120C     		lsrs	r2, r2, #16
  62 0026 1A70     		strb	r2, [r3]
 292:.\source\rte/sc_clockdata.h ****    if (TRUE == signal->pSigCfg->resourceActive) ReleaseResource(signal->pSigCfg->resource);        
  63              		.loc 2 292 0
  64 0028 2369     		ldr	r3, [r4, #16]
  65              	.LVL5:
  66 002a 93F82020 		ldrb	r2, [r3, #32]	@ zero_extendqisi2
  67 002e 012A     		cmp	r2, #1
  68 0030 02D1     		bne	.L3
  69 0032 586A     		ldr	r0, [r3, #36]
  70 0034 FFF7FEFF 		bl	EE_oo_ReleaseResource
  71              	.LVL6:
  72              	.L3:
  73              	.LBE30:
  74              	.LBE29:
 116:source\asw/swc_control.c ****     
 117:source\asw/swc_control.c ****     SC_CLOCKDATA_data_t clockData = SC_CLOCKDATA_INIT_DATA;
 118:source\asw/swc_control.c ****     RTE_SC_CLOCKDATA_getThreadSafe(&SO_CLOCKDATA_signal, &clockData);
 119:source\asw/swc_control.c ****     
 120:source\asw/swc_control.c ****     clockData.m_minutes.value = (clockData.m_minutes.value + 1) % clockData.m_minutes.maxValue;
  75              		.loc 1 120 0
  76 0038 9DF80D30 		ldrb	r3, [sp, #13]	@ zero_extendqisi2
  77 003c 0133     		adds	r3, r3, #1
  78 003e 9DF81010 		ldrb	r1, [sp, #16]	@ zero_extendqisi2
  79 0042 93FBF1F2 		sdiv	r2, r3, r1
  80 0046 01FB1233 		mls	r3, r1, r2, r3
  81 004a DBB2     		uxtb	r3, r3
  82 004c 8DF80D30 		strb	r3, [sp, #13]
 121:source\asw/swc_control.c ****     
 122:source\asw/swc_control.c ****     if (clockData.m_minutes.value == 0){
  83              		.loc 1 122 0
  84 0050 23B9     		cbnz	r3, .L4
 123:source\asw/swc_control.c ****         clockData.m_hours.value += 1;
  85              		.loc 1 123 0
  86 0052 9DF81230 		ldrb	r3, [sp, #18]	@ zero_extendqisi2
  87 0056 0133     		adds	r3, r3, #1
  88 0058 8DF81230 		strb	r3, [sp, #18]
  89              	.L4:
 124:source\asw/swc_control.c ****         
 125:source\asw/swc_control.c ****     }
 126:source\asw/swc_control.c ****     clockData.m_minutes.m_updateRequired = TRUE;
  90              		.loc 1 126 0
  91 005c 0123     		movs	r3, #1
  92 005e 8DF80C30 		strb	r3, [sp, #12]
 127:source\asw/swc_control.c ****     clockData.m_hours.m_updateRequired = TRUE;
  93              		.loc 1 127 0
  94 0062 8DF81130 		strb	r3, [sp, #17]
ARM GAS  C:\Users\zakis\AppData\Local\Temp\ccEVpWju.s 			page 10


  95              	.LVL7:
  96 0066 6B46     		mov	r3, sp
  97 0068 06AA     		add	r2, sp, #24
  98 006a 12E90700 		ldmdb	r2, {r0, r1, r2}
  99 006e 03C3     		stmia	r3!, {r0, r1}
 100 0070 23F8022B 		strh	r2, [r3], #2	@ movhi
 101 0074 120C     		lsrs	r2, r2, #16
 102 0076 1A70     		strb	r2, [r3]
 103              	.LVL8:
 104              	.LBB31:
 105              	.LBB32:
 293:.\source\rte/sc_clockdata.h **** 
 294:.\source\rte/sc_clockdata.h ****    return RC_SUCCESS;                                                                   
 295:.\source\rte/sc_clockdata.h ****    
 296:.\source\rte/sc_clockdata.h **** }                                                                                                  
 297:.\source\rte/sc_clockdata.h ****                                                                                                    
 298:.\source\rte/sc_clockdata.h **** /**
 299:.\source\rte/sc_clockdata.h ****  * Sets a new application value to the passed signal instance by passing the new value.
 300:.\source\rte/sc_clockdata.h ****  * The corresponding driver raw value will be calculated immediately by using the default conversio
 301:.\source\rte/sc_clockdata.h ****  * signal specific scaling function.
 302:.\source\rte/sc_clockdata.h ****  * The signal age will be set to 0 and the new status will be 'RTE_SIGNALSTATUS_VALID'.
 303:.\source\rte/sc_clockdata.h ****  *
 304:.\source\rte/sc_clockdata.h ****  * @param  SC_CLOCKDATA_t * const signal: Pointer to the signal object
 305:.\source\rte/sc_clockdata.h ****  * @param  sc_clockdata_data_t const value: value for the application data buffer
 306:.\source\rte/sc_clockdata.h ****  * @return RC_t: standard return code, currently only RC_SUCCESS
 307:.\source\rte/sc_clockdata.h ****  *
 308:.\source\rte/sc_clockdata.h ****  **/
 309:.\source\rte/sc_clockdata.h **** inline RC_t RTE_SC_CLOCKDATA_set(SC_CLOCKDATA_t * const signal, const SC_CLOCKDATA_data_t value  )
 310:.\source\rte/sc_clockdata.h **** {
 311:.\source\rte/sc_clockdata.h **** 
 312:.\source\rte/sc_clockdata.h ****    RC_t ret = RC_SUCCESS;
 313:.\source\rte/sc_clockdata.h ****    size_t taskNum=0;
 314:.\source\rte/sc_clockdata.h **** 
 315:.\source\rte/sc_clockdata.h **** 
 316:.\source\rte/sc_clockdata.h ****    if (TRUE == signal->pSigCfg->resourceActive) GetResource(signal->pSigCfg->resource);
 106              		.loc 2 316 0
 107 0078 194B     		ldr	r3, .L12
 108 007a 1B69     		ldr	r3, [r3, #16]
 109 007c 93F82020 		ldrb	r2, [r3, #32]	@ zero_extendqisi2
 110 0080 012A     		cmp	r2, #1
 111 0082 02D1     		bne	.L5
 112 0084 586A     		ldr	r0, [r3, #36]
 113 0086 FFF7FEFF 		bl	EE_oo_GetResource
 114              	.LVL9:
 115              	.L5:
 317:.\source\rte/sc_clockdata.h ****    signal->value  = value;
 116              		.loc 2 317 0
 117 008a 154C     		ldr	r4, .L12
 118 008c 2346     		mov	r3, r4
 119 008e 9DE80700 		ldmia	sp, {r0, r1, r2}
 120 0092 03C3     		stmia	r3!, {r0, r1}
 121 0094 23F8022B 		strh	r2, [r3], #2	@ movhi
 122 0098 120C     		lsrs	r2, r2, #16
 123 009a 1A70     		strb	r2, [r3]
 318:.\source\rte/sc_clockdata.h ****    signal->age    = 0;
 124              		.loc 2 318 0
 125 009c 0023     		movs	r3, #0
ARM GAS  C:\Users\zakis\AppData\Local\Temp\ccEVpWju.s 			page 11


 126 009e E360     		str	r3, [r4, #12]
 319:.\source\rte/sc_clockdata.h ****    signal->status = RTE_SIGNALSTATUS_VALID;
 127              		.loc 2 319 0
 128 00a0 0223     		movs	r3, #2
 129 00a2 E372     		strb	r3, [r4, #11]
 320:.\source\rte/sc_clockdata.h ****    if (TRUE == signal->pSigCfg->resourceActive) ReleaseResource(signal->pSigCfg->resource);
 130              		.loc 2 320 0
 131 00a4 2369     		ldr	r3, [r4, #16]
 132 00a6 93F82020 		ldrb	r2, [r3, #32]	@ zero_extendqisi2
 133 00aa 012A     		cmp	r2, #1
 134 00ac 02D1     		bne	.L6
 135 00ae 586A     		ldr	r0, [r3, #36]
 136 00b0 FFF7FEFF 		bl	EE_oo_ReleaseResource
 137              	.LVL10:
 138              	.L6:
 321:.\source\rte/sc_clockdata.h **** 
 322:.\source\rte/sc_clockdata.h ****    //Pointer to the Taskarray, containing the tasks receiving the onUpdate events
 323:.\source\rte/sc_clockdata.h ****    TaskTypeArray* pTaskArray = signal->pSigCfg->onUpdateTasks;
 139              		.loc 2 323 0
 140 00b4 0A4B     		ldr	r3, .L12
 141 00b6 1B69     		ldr	r3, [r3, #16]
 142 00b8 5D69     		ldr	r5, [r3, #20]
 143              	.LVL11:
 324:.\source\rte/sc_clockdata.h **** 
 325:.\source\rte/sc_clockdata.h ****    if (0 != signal->pSigCfg->evOnUpdate && NULL != pTaskArray){
 144              		.loc 2 325 0
 145 00ba 9B68     		ldr	r3, [r3, #8]
 146 00bc 73B1     		cbz	r3, .L1
 147 00be 3DB9     		cbnz	r5, .L10
 148 00c0 0CE0     		b	.L1
 149              	.LVL12:
 150              	.L9:
 151              	.LBB33:
 326:.\source\rte/sc_clockdata.h ****       for( taskNum=0 ; taskNum < signal->pSigCfg->onUpdateTaskCount ;taskNum++){
 327:.\source\rte/sc_clockdata.h **** 		  
 328:.\source\rte/sc_clockdata.h ****           TaskType task = (*pTaskArray)[taskNum];
 329:.\source\rte/sc_clockdata.h **** 	      SetEvent( task, signal->pSigCfg->evOnUpdate);
 152              		.loc 2 329 0
 153 00c2 9968     		ldr	r1, [r3, #8]
 154 00c4 55F82400 		ldr	r0, [r5, r4, lsl #2]
 155 00c8 FFF7FEFF 		bl	EE_oo_SetEvent
 156              	.LVL13:
 157              	.LBE33:
 326:.\source\rte/sc_clockdata.h ****       for( taskNum=0 ; taskNum < signal->pSigCfg->onUpdateTaskCount ;taskNum++){
 158              		.loc 2 326 0
 159 00cc 0134     		adds	r4, r4, #1
 160              	.LVL14:
 161 00ce 00E0     		b	.L8
 162              	.LVL15:
 163              	.L10:
 325:.\source\rte/sc_clockdata.h ****       for( taskNum=0 ; taskNum < signal->pSigCfg->onUpdateTaskCount ;taskNum++){
 164              		.loc 2 325 0
 165 00d0 0024     		movs	r4, #0
 166              	.LVL16:
 167              	.L8:
 326:.\source\rte/sc_clockdata.h ****       for( taskNum=0 ; taskNum < signal->pSigCfg->onUpdateTaskCount ;taskNum++){
 168              		.loc 2 326 0
ARM GAS  C:\Users\zakis\AppData\Local\Temp\ccEVpWju.s 			page 12


 169 00d2 034B     		ldr	r3, .L12
 170 00d4 1B69     		ldr	r3, [r3, #16]
 171 00d6 1A69     		ldr	r2, [r3, #16]
 172 00d8 9442     		cmp	r4, r2
 173 00da F2D3     		bcc	.L9
 174              	.LVL17:
 175              	.L1:
 176              	.LBE32:
 177              	.LBE31:
 128:source\asw/swc_control.c **** //    clockData.m_hours.value = (clockData.m_hours.value + 1) % clockData.m_hours.maxValue;
 129:source\asw/swc_control.c ****     
 130:source\asw/swc_control.c ****     
 131:source\asw/swc_control.c ****     
 132:source\asw/swc_control.c **** 
 133:source\asw/swc_control.c ****     RTE_SC_CLOCKDATA_set(&SO_CLOCKDATA_signal, clockData);
 134:source\asw/swc_control.c ****     return;
 135:source\asw/swc_control.c **** 
 136:source\asw/swc_control.c **** }
 178              		.loc 1 136 0
 179 00dc 07B0     		add	sp, sp, #28
 180              		.cfi_def_cfa_offset 12
 181              		@ sp needed
 182 00de 30BD     		pop	{r4, r5, pc}
 183              	.LVL18:
 184              	.L13:
 185              		.align	2
 186              	.L12:
 187 00e0 00000000 		.word	SO_CLOCKDATA_signal
 188              		.cfi_endproc
 189              	.LFE153:
 190              		.size	CLOCK_increment1Minute, .-CLOCK_increment1Minute
 191              		.section	.text.CLOCK_setEditFonts,"ax",%progbits
 192              		.align	2
 193              		.thumb
 194              		.thumb_func
 195              		.type	CLOCK_setEditFonts, %function
 196              	CLOCK_setEditFonts:
 197              	.LFB154:
 137:source\asw/swc_control.c **** 
 138:source\asw/swc_control.c **** 
 139:source\asw/swc_control.c **** static void CLOCK_setEditFonts(){
 198              		.loc 1 139 0
 199              		.cfi_startproc
 200              		@ args = 0, pretend = 0, frame = 24
 201              		@ frame_needed = 0, uses_anonymous_args = 0
 202 0000 30B5     		push	{r4, r5, lr}
 203              		.cfi_def_cfa_offset 12
 204              		.cfi_offset 4, -12
 205              		.cfi_offset 5, -8
 206              		.cfi_offset 14, -4
 207 0002 87B0     		sub	sp, sp, #28
 208              		.cfi_def_cfa_offset 40
 209              	.LVL19:
 210              	.LBB34:
 211              	.LBB35:
 290:.\source\rte/sc_clockdata.h ****    *data = signal->value;
 212              		.loc 2 290 0
ARM GAS  C:\Users\zakis\AppData\Local\Temp\ccEVpWju.s 			page 13


 213 0004 334B     		ldr	r3, .L26
 214 0006 1B69     		ldr	r3, [r3, #16]
 215 0008 93F82020 		ldrb	r2, [r3, #32]	@ zero_extendqisi2
 216 000c 012A     		cmp	r2, #1
 217 000e 02D1     		bne	.L15
 218 0010 586A     		ldr	r0, [r3, #36]
 219 0012 FFF7FEFF 		bl	EE_oo_GetResource
 220              	.LVL20:
 221              	.L15:
 291:.\source\rte/sc_clockdata.h ****    if (TRUE == signal->pSigCfg->resourceActive) ReleaseResource(signal->pSigCfg->resource);        
 222              		.loc 2 291 0
 223 0016 2F4C     		ldr	r4, .L26
 224 0018 03AB     		add	r3, sp, #12
 225              	.LVL21:
 226 001a 94E80700 		ldmia	r4, {r0, r1, r2}
 227 001e 03C3     		stmia	r3!, {r0, r1}
 228              	.LVL22:
 229 0020 23F8022B 		strh	r2, [r3], #2	@ movhi
 230              	.LVL23:
 231 0024 120C     		lsrs	r2, r2, #16
 232 0026 1A70     		strb	r2, [r3]
 292:.\source\rte/sc_clockdata.h **** 
 233              		.loc 2 292 0
 234 0028 2369     		ldr	r3, [r4, #16]
 235              	.LVL24:
 236 002a 93F82020 		ldrb	r2, [r3, #32]	@ zero_extendqisi2
 237 002e 012A     		cmp	r2, #1
 238 0030 02D1     		bne	.L16
 239 0032 586A     		ldr	r0, [r3, #36]
 240 0034 FFF7FEFF 		bl	EE_oo_ReleaseResource
 241              	.LVL25:
 242              	.L16:
 243              	.LBE35:
 244              	.LBE34:
 140:source\asw/swc_control.c ****     SC_CLOCKDATA_data_t clockData = SC_CLOCKDATA_INIT_DATA;
 141:source\asw/swc_control.c ****     RTE_SC_CLOCKDATA_getThreadSafe(&SO_CLOCKDATA_signal, &clockData);
 142:source\asw/swc_control.c ****     
 143:source\asw/swc_control.c ****     if (clockData.m_hours.isActive == TRUE){
 245              		.loc 1 143 0
 246 0038 9DF81430 		ldrb	r3, [sp, #20]	@ zero_extendqisi2
 247 003c 012B     		cmp	r3, #1
 248 003e 03D1     		bne	.L17
 144:source\asw/swc_control.c ****         clockData.m_hours.m_editing = TRUE;
 249              		.loc 1 144 0
 250 0040 8DF81330 		strb	r3, [sp, #19]
 145:source\asw/swc_control.c ****         clockData.m_hours.m_updateRequired = TRUE;
 251              		.loc 1 145 0
 252 0044 8DF81130 		strb	r3, [sp, #17]
 253              	.L17:
 146:source\asw/swc_control.c **** 
 147:source\asw/swc_control.c ****     }
 148:source\asw/swc_control.c ****     if (clockData.m_minutes.isActive == TRUE){
 254              		.loc 1 148 0
 255 0048 9DF80F30 		ldrb	r3, [sp, #15]	@ zero_extendqisi2
 256 004c 012B     		cmp	r3, #1
 257 004e 03D1     		bne	.L18
 149:source\asw/swc_control.c ****         clockData.m_minutes.m_editing = TRUE;
ARM GAS  C:\Users\zakis\AppData\Local\Temp\ccEVpWju.s 			page 14


 258              		.loc 1 149 0
 259 0050 8DF80E30 		strb	r3, [sp, #14]
 150:source\asw/swc_control.c ****         clockData.m_minutes.m_updateRequired = TRUE;
 260              		.loc 1 150 0
 261 0054 8DF80C30 		strb	r3, [sp, #12]
 262              	.L18:
 263              	.LVL26:
 264 0058 6B46     		mov	r3, sp
 265 005a 06AA     		add	r2, sp, #24
 266 005c 12E90700 		ldmdb	r2, {r0, r1, r2}
 267 0060 03C3     		stmia	r3!, {r0, r1}
 268 0062 23F8022B 		strh	r2, [r3], #2	@ movhi
 269 0066 120C     		lsrs	r2, r2, #16
 270 0068 1A70     		strb	r2, [r3]
 271              	.LVL27:
 272              	.LBB36:
 273              	.LBB37:
 316:.\source\rte/sc_clockdata.h ****    signal->value  = value;
 274              		.loc 2 316 0
 275 006a 1A4B     		ldr	r3, .L26
 276 006c 1B69     		ldr	r3, [r3, #16]
 277 006e 93F82020 		ldrb	r2, [r3, #32]	@ zero_extendqisi2
 278 0072 012A     		cmp	r2, #1
 279 0074 02D1     		bne	.L19
 280 0076 586A     		ldr	r0, [r3, #36]
 281 0078 FFF7FEFF 		bl	EE_oo_GetResource
 282              	.LVL28:
 283              	.L19:
 317:.\source\rte/sc_clockdata.h ****    signal->age    = 0;
 284              		.loc 2 317 0
 285 007c 154C     		ldr	r4, .L26
 286 007e 2346     		mov	r3, r4
 287 0080 9DE80700 		ldmia	sp, {r0, r1, r2}
 288 0084 03C3     		stmia	r3!, {r0, r1}
 289 0086 23F8022B 		strh	r2, [r3], #2	@ movhi
 290 008a 120C     		lsrs	r2, r2, #16
 291 008c 1A70     		strb	r2, [r3]
 318:.\source\rte/sc_clockdata.h ****    signal->status = RTE_SIGNALSTATUS_VALID;
 292              		.loc 2 318 0
 293 008e 0023     		movs	r3, #0
 294 0090 E360     		str	r3, [r4, #12]
 319:.\source\rte/sc_clockdata.h ****    if (TRUE == signal->pSigCfg->resourceActive) ReleaseResource(signal->pSigCfg->resource);
 295              		.loc 2 319 0
 296 0092 0223     		movs	r3, #2
 297 0094 E372     		strb	r3, [r4, #11]
 320:.\source\rte/sc_clockdata.h **** 
 298              		.loc 2 320 0
 299 0096 2369     		ldr	r3, [r4, #16]
 300 0098 93F82020 		ldrb	r2, [r3, #32]	@ zero_extendqisi2
 301 009c 012A     		cmp	r2, #1
 302 009e 02D1     		bne	.L20
 303 00a0 586A     		ldr	r0, [r3, #36]
 304 00a2 FFF7FEFF 		bl	EE_oo_ReleaseResource
 305              	.LVL29:
 306              	.L20:
 323:.\source\rte/sc_clockdata.h **** 
 307              		.loc 2 323 0
ARM GAS  C:\Users\zakis\AppData\Local\Temp\ccEVpWju.s 			page 15


 308 00a6 0B4B     		ldr	r3, .L26
 309 00a8 1B69     		ldr	r3, [r3, #16]
 310 00aa 5D69     		ldr	r5, [r3, #20]
 311              	.LVL30:
 325:.\source\rte/sc_clockdata.h ****       for( taskNum=0 ; taskNum < signal->pSigCfg->onUpdateTaskCount ;taskNum++){
 312              		.loc 2 325 0
 313 00ac 9B68     		ldr	r3, [r3, #8]
 314 00ae 73B1     		cbz	r3, .L14
 315 00b0 3DB9     		cbnz	r5, .L24
 316 00b2 0CE0     		b	.L14
 317              	.LVL31:
 318              	.L23:
 319              	.LBB38:
 320              		.loc 2 329 0
 321 00b4 9968     		ldr	r1, [r3, #8]
 322 00b6 55F82400 		ldr	r0, [r5, r4, lsl #2]
 323 00ba FFF7FEFF 		bl	EE_oo_SetEvent
 324              	.LVL32:
 325              	.LBE38:
 326:.\source\rte/sc_clockdata.h **** 		  
 326              		.loc 2 326 0
 327 00be 0134     		adds	r4, r4, #1
 328              	.LVL33:
 329 00c0 00E0     		b	.L22
 330              	.LVL34:
 331              	.L24:
 325:.\source\rte/sc_clockdata.h ****       for( taskNum=0 ; taskNum < signal->pSigCfg->onUpdateTaskCount ;taskNum++){
 332              		.loc 2 325 0
 333 00c2 0024     		movs	r4, #0
 334              	.LVL35:
 335              	.L22:
 326:.\source\rte/sc_clockdata.h **** 		  
 336              		.loc 2 326 0
 337 00c4 034B     		ldr	r3, .L26
 338 00c6 1B69     		ldr	r3, [r3, #16]
 339 00c8 1A69     		ldr	r2, [r3, #16]
 340 00ca 9442     		cmp	r4, r2
 341 00cc F2D3     		bcc	.L23
 342              	.LVL36:
 343              	.L14:
 344              	.LBE37:
 345              	.LBE36:
 151:source\asw/swc_control.c ****     }
 152:source\asw/swc_control.c ****     
 153:source\asw/swc_control.c ****     RTE_SC_CLOCKDATA_set(&SO_CLOCKDATA_signal, clockData);
 154:source\asw/swc_control.c ****     return;
 155:source\asw/swc_control.c **** 
 156:source\asw/swc_control.c **** }
 346              		.loc 1 156 0
 347 00ce 07B0     		add	sp, sp, #28
 348              		.cfi_def_cfa_offset 12
 349              		@ sp needed
 350 00d0 30BD     		pop	{r4, r5, pc}
 351              	.LVL37:
 352              	.L27:
 353 00d2 00BF     		.align	2
 354              	.L26:
ARM GAS  C:\Users\zakis\AppData\Local\Temp\ccEVpWju.s 			page 16


 355 00d4 00000000 		.word	SO_CLOCKDATA_signal
 356              		.cfi_endproc
 357              	.LFE154:
 358              		.size	CLOCK_setEditFonts, .-CLOCK_setEditFonts
 359              		.section	.text.CLOCK_incrementWidget,"ax",%progbits
 360              		.align	2
 361              		.thumb
 362              		.thumb_func
 363              		.type	CLOCK_incrementWidget, %function
 364              	CLOCK_incrementWidget:
 365              	.LFB155:
 157:source\asw/swc_control.c **** static void CLOCK_incrementWidget(){
 366              		.loc 1 157 0
 367              		.cfi_startproc
 368              		@ args = 0, pretend = 0, frame = 24
 369              		@ frame_needed = 0, uses_anonymous_args = 0
 370 0000 30B5     		push	{r4, r5, lr}
 371              		.cfi_def_cfa_offset 12
 372              		.cfi_offset 4, -12
 373              		.cfi_offset 5, -8
 374              		.cfi_offset 14, -4
 375 0002 87B0     		sub	sp, sp, #28
 376              		.cfi_def_cfa_offset 40
 377              	.LVL38:
 378              	.LBB39:
 379              	.LBB40:
 290:.\source\rte/sc_clockdata.h ****    *data = signal->value;
 380              		.loc 2 290 0
 381 0004 3D4B     		ldr	r3, .L40
 382 0006 1B69     		ldr	r3, [r3, #16]
 383 0008 93F82020 		ldrb	r2, [r3, #32]	@ zero_extendqisi2
 384 000c 012A     		cmp	r2, #1
 385 000e 02D1     		bne	.L29
 386 0010 586A     		ldr	r0, [r3, #36]
 387 0012 FFF7FEFF 		bl	EE_oo_GetResource
 388              	.LVL39:
 389              	.L29:
 291:.\source\rte/sc_clockdata.h ****    if (TRUE == signal->pSigCfg->resourceActive) ReleaseResource(signal->pSigCfg->resource);        
 390              		.loc 2 291 0
 391 0016 394C     		ldr	r4, .L40
 392 0018 03AB     		add	r3, sp, #12
 393              	.LVL40:
 394 001a 94E80700 		ldmia	r4, {r0, r1, r2}
 395 001e 03C3     		stmia	r3!, {r0, r1}
 396              	.LVL41:
 397 0020 23F8022B 		strh	r2, [r3], #2	@ movhi
 398              	.LVL42:
 399 0024 120C     		lsrs	r2, r2, #16
 400 0026 1A70     		strb	r2, [r3]
 292:.\source\rte/sc_clockdata.h **** 
 401              		.loc 2 292 0
 402 0028 2369     		ldr	r3, [r4, #16]
 403              	.LVL43:
 404 002a 93F82020 		ldrb	r2, [r3, #32]	@ zero_extendqisi2
 405 002e 012A     		cmp	r2, #1
 406 0030 02D1     		bne	.L30
 407 0032 586A     		ldr	r0, [r3, #36]
ARM GAS  C:\Users\zakis\AppData\Local\Temp\ccEVpWju.s 			page 17


 408 0034 FFF7FEFF 		bl	EE_oo_ReleaseResource
 409              	.LVL44:
 410              	.L30:
 411              	.LBE40:
 412              	.LBE39:
 158:source\asw/swc_control.c ****     
 159:source\asw/swc_control.c ****     SC_CLOCKDATA_data_t clockData = SC_CLOCKDATA_INIT_DATA;
 160:source\asw/swc_control.c ****     RTE_SC_CLOCKDATA_getThreadSafe(&SO_CLOCKDATA_signal, &clockData);
 161:source\asw/swc_control.c ****     
 162:source\asw/swc_control.c ****     if (clockData.m_hours.isActive == TRUE){
 413              		.loc 1 162 0
 414 0038 9DF81430 		ldrb	r3, [sp, #20]	@ zero_extendqisi2
 415 003c 012B     		cmp	r3, #1
 416 003e 0DD1     		bne	.L31
 163:source\asw/swc_control.c ****         clockData.m_hours.value = (clockData.m_hours.value + 1) % clockData.m_hours.maxValue;
 417              		.loc 1 163 0
 418 0040 9DF81230 		ldrb	r3, [sp, #18]	@ zero_extendqisi2
 419 0044 0133     		adds	r3, r3, #1
 420 0046 9DF81510 		ldrb	r1, [sp, #21]	@ zero_extendqisi2
 421 004a 93FBF1F2 		sdiv	r2, r3, r1
 422 004e 01FB1233 		mls	r3, r1, r2, r3
 423 0052 8DF81230 		strb	r3, [sp, #18]
 164:source\asw/swc_control.c ****         clockData.m_hours.m_updateRequired = TRUE;
 424              		.loc 1 164 0
 425 0056 0123     		movs	r3, #1
 426 0058 8DF81130 		strb	r3, [sp, #17]
 427              	.L31:
 165:source\asw/swc_control.c ****     }
 166:source\asw/swc_control.c ****     if (clockData.m_minutes.isActive == TRUE){
 428              		.loc 1 166 0
 429 005c 9DF80F30 		ldrb	r3, [sp, #15]	@ zero_extendqisi2
 430 0060 012B     		cmp	r3, #1
 431 0062 0DD1     		bne	.L32
 167:source\asw/swc_control.c ****         clockData.m_minutes.value = (clockData.m_minutes.value + 1) % clockData.m_minutes.maxValue;
 432              		.loc 1 167 0
 433 0064 9DF80D30 		ldrb	r3, [sp, #13]	@ zero_extendqisi2
 434 0068 0133     		adds	r3, r3, #1
 435 006a 9DF81010 		ldrb	r1, [sp, #16]	@ zero_extendqisi2
 436 006e 93FBF1F2 		sdiv	r2, r3, r1
 437 0072 01FB1233 		mls	r3, r1, r2, r3
 438 0076 8DF80D30 		strb	r3, [sp, #13]
 168:source\asw/swc_control.c ****         clockData.m_minutes.m_updateRequired = TRUE;
 439              		.loc 1 168 0
 440 007a 0123     		movs	r3, #1
 441 007c 8DF80C30 		strb	r3, [sp, #12]
 442              	.L32:
 443              	.LVL45:
 444 0080 6B46     		mov	r3, sp
 445 0082 06AA     		add	r2, sp, #24
 446 0084 12E90700 		ldmdb	r2, {r0, r1, r2}
 447 0088 03C3     		stmia	r3!, {r0, r1}
 448 008a 23F8022B 		strh	r2, [r3], #2	@ movhi
 449 008e 120C     		lsrs	r2, r2, #16
 450 0090 1A70     		strb	r2, [r3]
 451              	.LVL46:
 452              	.LBB41:
 453              	.LBB42:
ARM GAS  C:\Users\zakis\AppData\Local\Temp\ccEVpWju.s 			page 18


 316:.\source\rte/sc_clockdata.h ****    signal->value  = value;
 454              		.loc 2 316 0
 455 0092 1A4B     		ldr	r3, .L40
 456 0094 1B69     		ldr	r3, [r3, #16]
 457 0096 93F82020 		ldrb	r2, [r3, #32]	@ zero_extendqisi2
 458 009a 012A     		cmp	r2, #1
 459 009c 02D1     		bne	.L33
 460 009e 586A     		ldr	r0, [r3, #36]
 461 00a0 FFF7FEFF 		bl	EE_oo_GetResource
 462              	.LVL47:
 463              	.L33:
 317:.\source\rte/sc_clockdata.h ****    signal->age    = 0;
 464              		.loc 2 317 0
 465 00a4 154C     		ldr	r4, .L40
 466 00a6 2346     		mov	r3, r4
 467 00a8 9DE80700 		ldmia	sp, {r0, r1, r2}
 468 00ac 03C3     		stmia	r3!, {r0, r1}
 469 00ae 23F8022B 		strh	r2, [r3], #2	@ movhi
 470 00b2 120C     		lsrs	r2, r2, #16
 471 00b4 1A70     		strb	r2, [r3]
 318:.\source\rte/sc_clockdata.h ****    signal->status = RTE_SIGNALSTATUS_VALID;
 472              		.loc 2 318 0
 473 00b6 0023     		movs	r3, #0
 474 00b8 E360     		str	r3, [r4, #12]
 319:.\source\rte/sc_clockdata.h ****    if (TRUE == signal->pSigCfg->resourceActive) ReleaseResource(signal->pSigCfg->resource);
 475              		.loc 2 319 0
 476 00ba 0223     		movs	r3, #2
 477 00bc E372     		strb	r3, [r4, #11]
 320:.\source\rte/sc_clockdata.h **** 
 478              		.loc 2 320 0
 479 00be 2369     		ldr	r3, [r4, #16]
 480 00c0 93F82020 		ldrb	r2, [r3, #32]	@ zero_extendqisi2
 481 00c4 012A     		cmp	r2, #1
 482 00c6 02D1     		bne	.L34
 483 00c8 586A     		ldr	r0, [r3, #36]
 484 00ca FFF7FEFF 		bl	EE_oo_ReleaseResource
 485              	.LVL48:
 486              	.L34:
 323:.\source\rte/sc_clockdata.h **** 
 487              		.loc 2 323 0
 488 00ce 0B4B     		ldr	r3, .L40
 489 00d0 1B69     		ldr	r3, [r3, #16]
 490 00d2 5D69     		ldr	r5, [r3, #20]
 491              	.LVL49:
 325:.\source\rte/sc_clockdata.h ****       for( taskNum=0 ; taskNum < signal->pSigCfg->onUpdateTaskCount ;taskNum++){
 492              		.loc 2 325 0
 493 00d4 9B68     		ldr	r3, [r3, #8]
 494 00d6 73B1     		cbz	r3, .L28
 495 00d8 3DB9     		cbnz	r5, .L38
 496 00da 0CE0     		b	.L28
 497              	.LVL50:
 498              	.L37:
 499              	.LBB43:
 500              		.loc 2 329 0
 501 00dc 9968     		ldr	r1, [r3, #8]
 502 00de 55F82400 		ldr	r0, [r5, r4, lsl #2]
 503 00e2 FFF7FEFF 		bl	EE_oo_SetEvent
ARM GAS  C:\Users\zakis\AppData\Local\Temp\ccEVpWju.s 			page 19


 504              	.LVL51:
 505              	.LBE43:
 326:.\source\rte/sc_clockdata.h **** 		  
 506              		.loc 2 326 0
 507 00e6 0134     		adds	r4, r4, #1
 508              	.LVL52:
 509 00e8 00E0     		b	.L36
 510              	.LVL53:
 511              	.L38:
 325:.\source\rte/sc_clockdata.h ****       for( taskNum=0 ; taskNum < signal->pSigCfg->onUpdateTaskCount ;taskNum++){
 512              		.loc 2 325 0
 513 00ea 0024     		movs	r4, #0
 514              	.LVL54:
 515              	.L36:
 326:.\source\rte/sc_clockdata.h **** 		  
 516              		.loc 2 326 0
 517 00ec 034B     		ldr	r3, .L40
 518 00ee 1B69     		ldr	r3, [r3, #16]
 519 00f0 1A69     		ldr	r2, [r3, #16]
 520 00f2 9442     		cmp	r4, r2
 521 00f4 F2D3     		bcc	.L37
 522              	.LVL55:
 523              	.L28:
 524              	.LBE42:
 525              	.LBE41:
 169:source\asw/swc_control.c ****     }
 170:source\asw/swc_control.c ****     
 171:source\asw/swc_control.c **** 
 172:source\asw/swc_control.c ****     RTE_SC_CLOCKDATA_set(&SO_CLOCKDATA_signal, clockData);
 173:source\asw/swc_control.c ****     
 174:source\asw/swc_control.c ****     return;
 175:source\asw/swc_control.c **** 
 176:source\asw/swc_control.c **** }
 526              		.loc 1 176 0
 527 00f6 07B0     		add	sp, sp, #28
 528              		.cfi_def_cfa_offset 12
 529              		@ sp needed
 530 00f8 30BD     		pop	{r4, r5, pc}
 531              	.LVL56:
 532              	.L41:
 533 00fa 00BF     		.align	2
 534              	.L40:
 535 00fc 00000000 		.word	SO_CLOCKDATA_signal
 536              		.cfi_endproc
 537              	.LFE155:
 538              		.size	CLOCK_incrementWidget, .-CLOCK_incrementWidget
 539              		.section	.text.CLOCK_setDisplayFonts,"ax",%progbits
 540              		.align	2
 541              		.thumb
 542              		.thumb_func
 543              		.type	CLOCK_setDisplayFonts, %function
 544              	CLOCK_setDisplayFonts:
 545              	.LFB156:
 177:source\asw/swc_control.c **** static void CLOCK_setDisplayFonts(){
 546              		.loc 1 177 0
 547              		.cfi_startproc
 548              		@ args = 0, pretend = 0, frame = 24
ARM GAS  C:\Users\zakis\AppData\Local\Temp\ccEVpWju.s 			page 20


 549              		@ frame_needed = 0, uses_anonymous_args = 0
 550 0000 30B5     		push	{r4, r5, lr}
 551              		.cfi_def_cfa_offset 12
 552              		.cfi_offset 4, -12
 553              		.cfi_offset 5, -8
 554              		.cfi_offset 14, -4
 555 0002 87B0     		sub	sp, sp, #28
 556              		.cfi_def_cfa_offset 40
 557              	.LVL57:
 558              	.LBB44:
 559              	.LBB45:
 290:.\source\rte/sc_clockdata.h ****    *data = signal->value;
 560              		.loc 2 290 0
 561 0004 354B     		ldr	r3, .L54
 562 0006 1B69     		ldr	r3, [r3, #16]
 563 0008 93F82020 		ldrb	r2, [r3, #32]	@ zero_extendqisi2
 564 000c 012A     		cmp	r2, #1
 565 000e 02D1     		bne	.L43
 566 0010 586A     		ldr	r0, [r3, #36]
 567 0012 FFF7FEFF 		bl	EE_oo_GetResource
 568              	.LVL58:
 569              	.L43:
 291:.\source\rte/sc_clockdata.h ****    if (TRUE == signal->pSigCfg->resourceActive) ReleaseResource(signal->pSigCfg->resource);        
 570              		.loc 2 291 0
 571 0016 314C     		ldr	r4, .L54
 572 0018 03AB     		add	r3, sp, #12
 573              	.LVL59:
 574 001a 94E80700 		ldmia	r4, {r0, r1, r2}
 575 001e 03C3     		stmia	r3!, {r0, r1}
 576              	.LVL60:
 577 0020 23F8022B 		strh	r2, [r3], #2	@ movhi
 578              	.LVL61:
 579 0024 120C     		lsrs	r2, r2, #16
 580 0026 1A70     		strb	r2, [r3]
 292:.\source\rte/sc_clockdata.h **** 
 581              		.loc 2 292 0
 582 0028 2369     		ldr	r3, [r4, #16]
 583              	.LVL62:
 584 002a 93F82020 		ldrb	r2, [r3, #32]	@ zero_extendqisi2
 585 002e 012A     		cmp	r2, #1
 586 0030 02D1     		bne	.L44
 587 0032 586A     		ldr	r0, [r3, #36]
 588 0034 FFF7FEFF 		bl	EE_oo_ReleaseResource
 589              	.LVL63:
 590              	.L44:
 591              	.LBE45:
 592              	.LBE44:
 178:source\asw/swc_control.c ****     
 179:source\asw/swc_control.c ****     SC_CLOCKDATA_data_t clockData = SC_CLOCKDATA_INIT_DATA;
 180:source\asw/swc_control.c ****     RTE_SC_CLOCKDATA_getThreadSafe(&SO_CLOCKDATA_signal, &clockData);
 181:source\asw/swc_control.c ****     
 182:source\asw/swc_control.c ****     
 183:source\asw/swc_control.c ****     if (clockData.m_hours.isActive == TRUE){
 593              		.loc 1 183 0
 594 0038 9DF81430 		ldrb	r3, [sp, #20]	@ zero_extendqisi2
 595 003c 012B     		cmp	r3, #1
 596 003e 05D1     		bne	.L45
ARM GAS  C:\Users\zakis\AppData\Local\Temp\ccEVpWju.s 			page 21


 184:source\asw/swc_control.c ****         clockData.m_hours.m_editing = FALSE;
 597              		.loc 1 184 0
 598 0040 0023     		movs	r3, #0
 599 0042 8DF81330 		strb	r3, [sp, #19]
 185:source\asw/swc_control.c ****         clockData.m_hours.m_updateRequired = TRUE;
 600              		.loc 1 185 0
 601 0046 0123     		movs	r3, #1
 602 0048 8DF81130 		strb	r3, [sp, #17]
 603              	.L45:
 186:source\asw/swc_control.c ****     }
 187:source\asw/swc_control.c ****     if (clockData.m_minutes.isActive == TRUE){
 604              		.loc 1 187 0
 605 004c 9DF80F30 		ldrb	r3, [sp, #15]	@ zero_extendqisi2
 606 0050 012B     		cmp	r3, #1
 607 0052 05D1     		bne	.L46
 188:source\asw/swc_control.c ****         clockData.m_minutes.m_editing = FALSE;
 608              		.loc 1 188 0
 609 0054 0023     		movs	r3, #0
 610 0056 8DF80E30 		strb	r3, [sp, #14]
 189:source\asw/swc_control.c ****         clockData.m_minutes.m_updateRequired = TRUE;
 611              		.loc 1 189 0
 612 005a 0123     		movs	r3, #1
 613 005c 8DF80C30 		strb	r3, [sp, #12]
 614              	.L46:
 615              	.LVL64:
 616 0060 6B46     		mov	r3, sp
 617 0062 06AA     		add	r2, sp, #24
 618 0064 12E90700 		ldmdb	r2, {r0, r1, r2}
 619 0068 03C3     		stmia	r3!, {r0, r1}
 620 006a 23F8022B 		strh	r2, [r3], #2	@ movhi
 621 006e 120C     		lsrs	r2, r2, #16
 622 0070 1A70     		strb	r2, [r3]
 623              	.LVL65:
 624              	.LBB46:
 625              	.LBB47:
 316:.\source\rte/sc_clockdata.h ****    signal->value  = value;
 626              		.loc 2 316 0
 627 0072 1A4B     		ldr	r3, .L54
 628 0074 1B69     		ldr	r3, [r3, #16]
 629 0076 93F82020 		ldrb	r2, [r3, #32]	@ zero_extendqisi2
 630 007a 012A     		cmp	r2, #1
 631 007c 02D1     		bne	.L47
 632 007e 586A     		ldr	r0, [r3, #36]
 633 0080 FFF7FEFF 		bl	EE_oo_GetResource
 634              	.LVL66:
 635              	.L47:
 317:.\source\rte/sc_clockdata.h ****    signal->age    = 0;
 636              		.loc 2 317 0
 637 0084 154C     		ldr	r4, .L54
 638 0086 2346     		mov	r3, r4
 639 0088 9DE80700 		ldmia	sp, {r0, r1, r2}
 640 008c 03C3     		stmia	r3!, {r0, r1}
 641 008e 23F8022B 		strh	r2, [r3], #2	@ movhi
 642 0092 120C     		lsrs	r2, r2, #16
 643 0094 1A70     		strb	r2, [r3]
 318:.\source\rte/sc_clockdata.h ****    signal->status = RTE_SIGNALSTATUS_VALID;
 644              		.loc 2 318 0
ARM GAS  C:\Users\zakis\AppData\Local\Temp\ccEVpWju.s 			page 22


 645 0096 0023     		movs	r3, #0
 646 0098 E360     		str	r3, [r4, #12]
 319:.\source\rte/sc_clockdata.h ****    if (TRUE == signal->pSigCfg->resourceActive) ReleaseResource(signal->pSigCfg->resource);
 647              		.loc 2 319 0
 648 009a 0223     		movs	r3, #2
 649 009c E372     		strb	r3, [r4, #11]
 320:.\source\rte/sc_clockdata.h **** 
 650              		.loc 2 320 0
 651 009e 2369     		ldr	r3, [r4, #16]
 652 00a0 93F82020 		ldrb	r2, [r3, #32]	@ zero_extendqisi2
 653 00a4 012A     		cmp	r2, #1
 654 00a6 02D1     		bne	.L48
 655 00a8 586A     		ldr	r0, [r3, #36]
 656 00aa FFF7FEFF 		bl	EE_oo_ReleaseResource
 657              	.LVL67:
 658              	.L48:
 323:.\source\rte/sc_clockdata.h **** 
 659              		.loc 2 323 0
 660 00ae 0B4B     		ldr	r3, .L54
 661 00b0 1B69     		ldr	r3, [r3, #16]
 662 00b2 5D69     		ldr	r5, [r3, #20]
 663              	.LVL68:
 325:.\source\rte/sc_clockdata.h ****       for( taskNum=0 ; taskNum < signal->pSigCfg->onUpdateTaskCount ;taskNum++){
 664              		.loc 2 325 0
 665 00b4 9B68     		ldr	r3, [r3, #8]
 666 00b6 73B1     		cbz	r3, .L42
 667 00b8 3DB9     		cbnz	r5, .L52
 668 00ba 0CE0     		b	.L42
 669              	.LVL69:
 670              	.L51:
 671              	.LBB48:
 672              		.loc 2 329 0
 673 00bc 9968     		ldr	r1, [r3, #8]
 674 00be 55F82400 		ldr	r0, [r5, r4, lsl #2]
 675 00c2 FFF7FEFF 		bl	EE_oo_SetEvent
 676              	.LVL70:
 677              	.LBE48:
 326:.\source\rte/sc_clockdata.h **** 		  
 678              		.loc 2 326 0
 679 00c6 0134     		adds	r4, r4, #1
 680              	.LVL71:
 681 00c8 00E0     		b	.L50
 682              	.LVL72:
 683              	.L52:
 325:.\source\rte/sc_clockdata.h ****       for( taskNum=0 ; taskNum < signal->pSigCfg->onUpdateTaskCount ;taskNum++){
 684              		.loc 2 325 0
 685 00ca 0024     		movs	r4, #0
 686              	.LVL73:
 687              	.L50:
 326:.\source\rte/sc_clockdata.h **** 		  
 688              		.loc 2 326 0
 689 00cc 034B     		ldr	r3, .L54
 690 00ce 1B69     		ldr	r3, [r3, #16]
 691 00d0 1A69     		ldr	r2, [r3, #16]
 692 00d2 9442     		cmp	r4, r2
 693 00d4 F2D3     		bcc	.L51
 694              	.LVL74:
ARM GAS  C:\Users\zakis\AppData\Local\Temp\ccEVpWju.s 			page 23


 695              	.L42:
 696              	.LBE47:
 697              	.LBE46:
 190:source\asw/swc_control.c ****     }
 191:source\asw/swc_control.c **** 
 192:source\asw/swc_control.c ****     RTE_SC_CLOCKDATA_set(&SO_CLOCKDATA_signal, clockData);
 193:source\asw/swc_control.c ****     return;
 194:source\asw/swc_control.c **** 
 195:source\asw/swc_control.c **** 
 196:source\asw/swc_control.c **** }
 698              		.loc 1 196 0
 699 00d6 07B0     		add	sp, sp, #28
 700              		.cfi_def_cfa_offset 12
 701              		@ sp needed
 702 00d8 30BD     		pop	{r4, r5, pc}
 703              	.LVL75:
 704              	.L55:
 705 00da 00BF     		.align	2
 706              	.L54:
 707 00dc 00000000 		.word	SO_CLOCKDATA_signal
 708              		.cfi_endproc
 709              	.LFE156:
 710              		.size	CLOCK_setDisplayFonts, .-CLOCK_setDisplayFonts
 711              		.section	.text.CLOCK_DISPATCH_WRAPPER,"ax",%progbits
 712              		.align	2
 713              		.thumb
 714              		.thumb_func
 715              		.type	CLOCK_DISPATCH_WRAPPER, %function
 716              	CLOCK_DISPATCH_WRAPPER:
 717              	.LFB157:
 197:source\asw/swc_control.c **** 
 198:source\asw/swc_control.c **** static void CLOCK_DISPATCH_WRAPPER(WIDGET_ACTIVE widget, STATE_event_t event){
 718              		.loc 1 198 0
 719              		.cfi_startproc
 720              		@ args = 0, pretend = 0, frame = 24
 721              		@ frame_needed = 0, uses_anonymous_args = 0
 722              	.LVL76:
 723 0000 70B5     		push	{r4, r5, r6, lr}
 724              		.cfi_def_cfa_offset 16
 725              		.cfi_offset 4, -16
 726              		.cfi_offset 5, -12
 727              		.cfi_offset 6, -8
 728              		.cfi_offset 14, -4
 729 0002 86B0     		sub	sp, sp, #24
 730              		.cfi_def_cfa_offset 40
 731 0004 0646     		mov	r6, r0
 732 0006 0D46     		mov	r5, r1
 733              	.LVL77:
 734              	.LBB49:
 735              	.LBB50:
 290:.\source\rte/sc_clockdata.h ****    *data = signal->value;
 736              		.loc 2 290 0
 737 0008 344B     		ldr	r3, .L68
 738 000a 1B69     		ldr	r3, [r3, #16]
 739 000c 93F82020 		ldrb	r2, [r3, #32]	@ zero_extendqisi2
 740 0010 012A     		cmp	r2, #1
 741 0012 02D1     		bne	.L57
ARM GAS  C:\Users\zakis\AppData\Local\Temp\ccEVpWju.s 			page 24


 742 0014 586A     		ldr	r0, [r3, #36]
 743              	.LVL78:
 744 0016 FFF7FEFF 		bl	EE_oo_GetResource
 745              	.LVL79:
 746              	.L57:
 291:.\source\rte/sc_clockdata.h ****    if (TRUE == signal->pSigCfg->resourceActive) ReleaseResource(signal->pSigCfg->resource);        
 747              		.loc 2 291 0
 748 001a 304C     		ldr	r4, .L68
 749 001c 03AB     		add	r3, sp, #12
 750              	.LVL80:
 751 001e 94E80700 		ldmia	r4, {r0, r1, r2}
 752 0022 03C3     		stmia	r3!, {r0, r1}
 753              	.LVL81:
 754 0024 23F8022B 		strh	r2, [r3], #2	@ movhi
 755              	.LVL82:
 756 0028 120C     		lsrs	r2, r2, #16
 757 002a 1A70     		strb	r2, [r3]
 292:.\source\rte/sc_clockdata.h **** 
 758              		.loc 2 292 0
 759 002c 2369     		ldr	r3, [r4, #16]
 760              	.LVL83:
 761 002e 93F82020 		ldrb	r2, [r3, #32]	@ zero_extendqisi2
 762 0032 012A     		cmp	r2, #1
 763 0034 02D1     		bne	.L58
 764 0036 586A     		ldr	r0, [r3, #36]
 765 0038 FFF7FEFF 		bl	EE_oo_ReleaseResource
 766              	.LVL84:
 767              	.L58:
 768              	.LBE50:
 769              	.LBE49:
 199:source\asw/swc_control.c ****     
 200:source\asw/swc_control.c ****     SC_CLOCKDATA_data_t clockData = SC_CLOCKDATA_INIT_DATA;
 201:source\asw/swc_control.c ****     RTE_SC_CLOCKDATA_getThreadSafe(&SO_CLOCKDATA_signal, &clockData);
 202:source\asw/swc_control.c ****     
 203:source\asw/swc_control.c ****     if (widget == WIDGET_HOUR){
 770              		.loc 1 203 0
 771 003c 2EB9     		cbnz	r6, .L59
 204:source\asw/swc_control.c ****         clockData.m_hours.isActive = TRUE;
 772              		.loc 1 204 0
 773 003e 0123     		movs	r3, #1
 774 0040 8DF81430 		strb	r3, [sp, #20]
 205:source\asw/swc_control.c ****         clockData.m_minutes.isActive = FALSE;
 775              		.loc 1 205 0
 776 0044 0023     		movs	r3, #0
 777 0046 8DF80F30 		strb	r3, [sp, #15]
 778              	.L59:
 206:source\asw/swc_control.c ****     } 
 207:source\asw/swc_control.c ****     if (widget == WIDGET_MIN){
 779              		.loc 1 207 0
 780 004a 012E     		cmp	r6, #1
 781 004c 05D1     		bne	.L60
 208:source\asw/swc_control.c ****         clockData.m_hours.isActive = FALSE;
 782              		.loc 1 208 0
 783 004e 0023     		movs	r3, #0
 784 0050 8DF81430 		strb	r3, [sp, #20]
 209:source\asw/swc_control.c ****         clockData.m_minutes.isActive = TRUE;
 785              		.loc 1 209 0
ARM GAS  C:\Users\zakis\AppData\Local\Temp\ccEVpWju.s 			page 25


 786 0054 0123     		movs	r3, #1
 787 0056 8DF80F30 		strb	r3, [sp, #15]
 788              	.L60:
 789              	.LVL85:
 790 005a 6B46     		mov	r3, sp
 791 005c 06AA     		add	r2, sp, #24
 792 005e 12E90700 		ldmdb	r2, {r0, r1, r2}
 793 0062 03C3     		stmia	r3!, {r0, r1}
 794 0064 23F8022B 		strh	r2, [r3], #2	@ movhi
 795 0068 120C     		lsrs	r2, r2, #16
 796 006a 1A70     		strb	r2, [r3]
 797              	.LVL86:
 798              	.LBB51:
 799              	.LBB52:
 316:.\source\rte/sc_clockdata.h ****    signal->value  = value;
 800              		.loc 2 316 0
 801 006c 1B4B     		ldr	r3, .L68
 802 006e 1B69     		ldr	r3, [r3, #16]
 803 0070 93F82020 		ldrb	r2, [r3, #32]	@ zero_extendqisi2
 804 0074 012A     		cmp	r2, #1
 805 0076 02D1     		bne	.L61
 806 0078 586A     		ldr	r0, [r3, #36]
 807 007a FFF7FEFF 		bl	EE_oo_GetResource
 808              	.LVL87:
 809              	.L61:
 317:.\source\rte/sc_clockdata.h ****    signal->age    = 0;
 810              		.loc 2 317 0
 811 007e 174C     		ldr	r4, .L68
 812 0080 2346     		mov	r3, r4
 813 0082 9DE80700 		ldmia	sp, {r0, r1, r2}
 814 0086 03C3     		stmia	r3!, {r0, r1}
 815 0088 23F8022B 		strh	r2, [r3], #2	@ movhi
 816 008c 120C     		lsrs	r2, r2, #16
 817 008e 1A70     		strb	r2, [r3]
 318:.\source\rte/sc_clockdata.h ****    signal->status = RTE_SIGNALSTATUS_VALID;
 818              		.loc 2 318 0
 819 0090 0023     		movs	r3, #0
 820 0092 E360     		str	r3, [r4, #12]
 319:.\source\rte/sc_clockdata.h ****    if (TRUE == signal->pSigCfg->resourceActive) ReleaseResource(signal->pSigCfg->resource);
 821              		.loc 2 319 0
 822 0094 0223     		movs	r3, #2
 823 0096 E372     		strb	r3, [r4, #11]
 320:.\source\rte/sc_clockdata.h **** 
 824              		.loc 2 320 0
 825 0098 2369     		ldr	r3, [r4, #16]
 826 009a 93F82020 		ldrb	r2, [r3, #32]	@ zero_extendqisi2
 827 009e 012A     		cmp	r2, #1
 828 00a0 02D1     		bne	.L62
 829 00a2 586A     		ldr	r0, [r3, #36]
 830 00a4 FFF7FEFF 		bl	EE_oo_ReleaseResource
 831              	.LVL88:
 832              	.L62:
 323:.\source\rte/sc_clockdata.h **** 
 833              		.loc 2 323 0
 834 00a8 0C4B     		ldr	r3, .L68
 835 00aa 1B69     		ldr	r3, [r3, #16]
 836 00ac 5E69     		ldr	r6, [r3, #20]
ARM GAS  C:\Users\zakis\AppData\Local\Temp\ccEVpWju.s 			page 26


 837              	.LVL89:
 325:.\source\rte/sc_clockdata.h ****       for( taskNum=0 ; taskNum < signal->pSigCfg->onUpdateTaskCount ;taskNum++){
 838              		.loc 2 325 0
 839 00ae 9B68     		ldr	r3, [r3, #8]
 840 00b0 73B1     		cbz	r3, .L63
 841 00b2 3EB9     		cbnz	r6, .L66
 842 00b4 0CE0     		b	.L63
 843              	.LVL90:
 844              	.L65:
 845              	.LBB53:
 846              		.loc 2 329 0
 847 00b6 9968     		ldr	r1, [r3, #8]
 848 00b8 56F82400 		ldr	r0, [r6, r4, lsl #2]
 849 00bc FFF7FEFF 		bl	EE_oo_SetEvent
 850              	.LVL91:
 851              	.LBE53:
 326:.\source\rte/sc_clockdata.h **** 		  
 852              		.loc 2 326 0
 853 00c0 0134     		adds	r4, r4, #1
 854              	.LVL92:
 855 00c2 00E0     		b	.L64
 856              	.LVL93:
 857              	.L66:
 325:.\source\rte/sc_clockdata.h ****       for( taskNum=0 ; taskNum < signal->pSigCfg->onUpdateTaskCount ;taskNum++){
 858              		.loc 2 325 0
 859 00c4 0024     		movs	r4, #0
 860              	.LVL94:
 861              	.L64:
 326:.\source\rte/sc_clockdata.h **** 		  
 862              		.loc 2 326 0
 863 00c6 054B     		ldr	r3, .L68
 864 00c8 1B69     		ldr	r3, [r3, #16]
 865 00ca 1A69     		ldr	r2, [r3, #16]
 866 00cc 9442     		cmp	r4, r2
 867 00ce F2D3     		bcc	.L65
 868              	.LVL95:
 869              	.L63:
 870              	.LBE52:
 871              	.LBE51:
 210:source\asw/swc_control.c ****     } 
 211:source\asw/swc_control.c ****     
 212:source\asw/swc_control.c ****     RTE_SC_CLOCKDATA_set(&SO_CLOCKDATA_signal, clockData);
 213:source\asw/swc_control.c ****     
 214:source\asw/swc_control.c ****     STATE_processEvent(&CLOCK_Widget_FSM, event);
 872              		.loc 1 214 0
 873 00d0 2946     		mov	r1, r5
 874 00d2 0348     		ldr	r0, .L68+4
 875 00d4 FFF7FEFF 		bl	STATE_processEvent
 876              	.LVL96:
 215:source\asw/swc_control.c **** 
 216:source\asw/swc_control.c ****     
 217:source\asw/swc_control.c ****     
 218:source\asw/swc_control.c **** 
 219:source\asw/swc_control.c **** }
 877              		.loc 1 219 0
 878 00d8 06B0     		add	sp, sp, #24
 879              		.cfi_def_cfa_offset 16
ARM GAS  C:\Users\zakis\AppData\Local\Temp\ccEVpWju.s 			page 27


 880              		@ sp needed
 881 00da 70BD     		pop	{r4, r5, r6, pc}
 882              	.L69:
 883              		.align	2
 884              	.L68:
 885 00dc 00000000 		.word	SO_CLOCKDATA_signal
 886 00e0 00000000 		.word	.LANCHOR0
 887              		.cfi_endproc
 888              	.LFE157:
 889              		.size	CLOCK_DISPATCH_WRAPPER, .-CLOCK_DISPATCH_WRAPPER
 890              		.section	.text.CLOCK_dispatch_KL_Hours,"ax",%progbits
 891              		.align	2
 892              		.thumb
 893              		.thumb_func
 894              		.type	CLOCK_dispatch_KL_Hours, %function
 895              	CLOCK_dispatch_KL_Hours:
 896              	.LFB144:
  62:source\asw/swc_control.c ****     
 897              		.loc 1 62 0
 898              		.cfi_startproc
 899              		@ args = 0, pretend = 0, frame = 0
 900              		@ frame_needed = 0, uses_anonymous_args = 0
 901 0000 08B5     		push	{r3, lr}
 902              		.cfi_def_cfa_offset 8
 903              		.cfi_offset 3, -8
 904              		.cfi_offset 14, -4
  64:source\asw/swc_control.c ****     return;
 905              		.loc 1 64 0
 906 0002 0021     		movs	r1, #0
 907 0004 0846     		mov	r0, r1
 908 0006 FFF7FEFF 		bl	CLOCK_DISPATCH_WRAPPER
 909              	.LVL97:
 910 000a 08BD     		pop	{r3, pc}
 911              		.cfi_endproc
 912              	.LFE144:
 913              		.size	CLOCK_dispatch_KL_Hours, .-CLOCK_dispatch_KL_Hours
 914              		.section	.text.CLOCK_dispatch_250MS_Hours,"ax",%progbits
 915              		.align	2
 916              		.thumb
 917              		.thumb_func
 918              		.type	CLOCK_dispatch_250MS_Hours, %function
 919              	CLOCK_dispatch_250MS_Hours:
 920              	.LFB151:
 101:source\asw/swc_control.c ****     CLOCK_DISPATCH_WRAPPER(WIDGET_HOUR, EV_250MS);
 921              		.loc 1 101 0
 922              		.cfi_startproc
 923              		@ args = 0, pretend = 0, frame = 0
 924              		@ frame_needed = 0, uses_anonymous_args = 0
 925 0000 08B5     		push	{r3, lr}
 926              		.cfi_def_cfa_offset 8
 927              		.cfi_offset 3, -8
 928              		.cfi_offset 14, -4
 102:source\asw/swc_control.c ****     return;
 929              		.loc 1 102 0
 930 0002 0421     		movs	r1, #4
 931 0004 0020     		movs	r0, #0
 932 0006 FFF7FEFF 		bl	CLOCK_DISPATCH_WRAPPER
ARM GAS  C:\Users\zakis\AppData\Local\Temp\ccEVpWju.s 			page 28


 933              	.LVL98:
 934 000a 08BD     		pop	{r3, pc}
 935              		.cfi_endproc
 936              	.LFE151:
 937              		.size	CLOCK_dispatch_250MS_Hours, .-CLOCK_dispatch_250MS_Hours
 938              		.section	.text.CLOCK_dispatch_KRLP_Hours,"ax",%progbits
 939              		.align	2
 940              		.thumb
 941              		.thumb_func
 942              		.type	CLOCK_dispatch_KRLP_Hours, %function
 943              	CLOCK_dispatch_KRLP_Hours:
 944              	.LFB149:
  90:source\asw/swc_control.c ****     CLOCK_DISPATCH_WRAPPER(WIDGET_HOUR, EV_KEYRIGHTLONGPRESS);
 945              		.loc 1 90 0
 946              		.cfi_startproc
 947              		@ args = 0, pretend = 0, frame = 0
 948              		@ frame_needed = 0, uses_anonymous_args = 0
 949 0000 08B5     		push	{r3, lr}
 950              		.cfi_def_cfa_offset 8
 951              		.cfi_offset 3, -8
 952              		.cfi_offset 14, -4
  91:source\asw/swc_control.c ****     return;
 953              		.loc 1 91 0
 954 0002 0221     		movs	r1, #2
 955 0004 0020     		movs	r0, #0
 956 0006 FFF7FEFF 		bl	CLOCK_DISPATCH_WRAPPER
 957              	.LVL99:
 958 000a 08BD     		pop	{r3, pc}
 959              		.cfi_endproc
 960              	.LFE149:
 961              		.size	CLOCK_dispatch_KRLP_Hours, .-CLOCK_dispatch_KRLP_Hours
 962              		.section	.text.CLOCK_dispatch_KR_Hours,"ax",%progbits
 963              		.align	2
 964              		.thumb
 965              		.thumb_func
 966              		.type	CLOCK_dispatch_KR_Hours, %function
 967              	CLOCK_dispatch_KR_Hours:
 968              	.LFB147:
  80:source\asw/swc_control.c ****     CLOCK_DISPATCH_WRAPPER(WIDGET_HOUR, EV_KEYRIGHT);
 969              		.loc 1 80 0
 970              		.cfi_startproc
 971              		@ args = 0, pretend = 0, frame = 0
 972              		@ frame_needed = 0, uses_anonymous_args = 0
 973 0000 08B5     		push	{r3, lr}
 974              		.cfi_def_cfa_offset 8
 975              		.cfi_offset 3, -8
 976              		.cfi_offset 14, -4
  81:source\asw/swc_control.c ****     return;
 977              		.loc 1 81 0
 978 0002 0121     		movs	r1, #1
 979 0004 0020     		movs	r0, #0
 980 0006 FFF7FEFF 		bl	CLOCK_DISPATCH_WRAPPER
 981              	.LVL100:
 982 000a 08BD     		pop	{r3, pc}
 983              		.cfi_endproc
 984              	.LFE147:
 985              		.size	CLOCK_dispatch_KR_Hours, .-CLOCK_dispatch_KR_Hours
ARM GAS  C:\Users\zakis\AppData\Local\Temp\ccEVpWju.s 			page 29


 986              		.section	.text.CLOCK_dispatch_KL_HoursMins,"ax",%progbits
 987              		.align	2
 988              		.thumb
 989              		.thumb_func
 990              		.type	CLOCK_dispatch_KL_HoursMins, %function
 991              	CLOCK_dispatch_KL_HoursMins:
 992              	.LFB146:
  73:source\asw/swc_control.c ****     CLOCK_DISPATCH_WRAPPER(WIDGET_HOUR, EV_KEYLEFT);
 993              		.loc 1 73 0
 994              		.cfi_startproc
 995              		@ args = 0, pretend = 0, frame = 0
 996              		@ frame_needed = 0, uses_anonymous_args = 0
 997 0000 08B5     		push	{r3, lr}
 998              		.cfi_def_cfa_offset 8
 999              		.cfi_offset 3, -8
 1000              		.cfi_offset 14, -4
  74:source\asw/swc_control.c ****     CLOCK_DISPATCH_WRAPPER(WIDGET_MIN, EV_KEYLEFT);
 1001              		.loc 1 74 0
 1002 0002 0021     		movs	r1, #0
 1003 0004 0846     		mov	r0, r1
 1004 0006 FFF7FEFF 		bl	CLOCK_DISPATCH_WRAPPER
 1005              	.LVL101:
  75:source\asw/swc_control.c ****     return;
 1006              		.loc 1 75 0
 1007 000a 0021     		movs	r1, #0
 1008 000c 0120     		movs	r0, #1
 1009 000e FFF7FEFF 		bl	CLOCK_DISPATCH_WRAPPER
 1010              	.LVL102:
 1011 0012 08BD     		pop	{r3, pc}
 1012              		.cfi_endproc
 1013              	.LFE146:
 1014              		.size	CLOCK_dispatch_KL_HoursMins, .-CLOCK_dispatch_KL_HoursMins
 1015              		.section	.text.CLOCK_dispatch_250MS_Mins,"ax",%progbits
 1016              		.align	2
 1017              		.thumb
 1018              		.thumb_func
 1019              		.type	CLOCK_dispatch_250MS_Mins, %function
 1020              	CLOCK_dispatch_250MS_Mins:
 1021              	.LFB152:
 106:source\asw/swc_control.c ****     CLOCK_DISPATCH_WRAPPER(WIDGET_MIN, EV_250MS);
 1022              		.loc 1 106 0
 1023              		.cfi_startproc
 1024              		@ args = 0, pretend = 0, frame = 0
 1025              		@ frame_needed = 0, uses_anonymous_args = 0
 1026 0000 08B5     		push	{r3, lr}
 1027              		.cfi_def_cfa_offset 8
 1028              		.cfi_offset 3, -8
 1029              		.cfi_offset 14, -4
 107:source\asw/swc_control.c ****     return;
 1030              		.loc 1 107 0
 1031 0002 0421     		movs	r1, #4
 1032 0004 0120     		movs	r0, #1
 1033 0006 FFF7FEFF 		bl	CLOCK_DISPATCH_WRAPPER
 1034              	.LVL103:
 1035 000a 08BD     		pop	{r3, pc}
 1036              		.cfi_endproc
 1037              	.LFE152:
ARM GAS  C:\Users\zakis\AppData\Local\Temp\ccEVpWju.s 			page 30


 1038              		.size	CLOCK_dispatch_250MS_Mins, .-CLOCK_dispatch_250MS_Mins
 1039              		.section	.text.CLOCK_dispatch_KRLP_Mins,"ax",%progbits
 1040              		.align	2
 1041              		.thumb
 1042              		.thumb_func
 1043              		.type	CLOCK_dispatch_KRLP_Mins, %function
 1044              	CLOCK_dispatch_KRLP_Mins:
 1045              	.LFB150:
  95:source\asw/swc_control.c ****     CLOCK_DISPATCH_WRAPPER(WIDGET_MIN, EV_KEYRIGHTLONGPRESS);
 1046              		.loc 1 95 0
 1047              		.cfi_startproc
 1048              		@ args = 0, pretend = 0, frame = 0
 1049              		@ frame_needed = 0, uses_anonymous_args = 0
 1050 0000 08B5     		push	{r3, lr}
 1051              		.cfi_def_cfa_offset 8
 1052              		.cfi_offset 3, -8
 1053              		.cfi_offset 14, -4
  96:source\asw/swc_control.c ****     return;
 1054              		.loc 1 96 0
 1055 0002 0221     		movs	r1, #2
 1056 0004 0120     		movs	r0, #1
 1057 0006 FFF7FEFF 		bl	CLOCK_DISPATCH_WRAPPER
 1058              	.LVL104:
 1059 000a 08BD     		pop	{r3, pc}
 1060              		.cfi_endproc
 1061              	.LFE150:
 1062              		.size	CLOCK_dispatch_KRLP_Mins, .-CLOCK_dispatch_KRLP_Mins
 1063              		.section	.text.CLOCK_dispatch_KR_Mins,"ax",%progbits
 1064              		.align	2
 1065              		.thumb
 1066              		.thumb_func
 1067              		.type	CLOCK_dispatch_KR_Mins, %function
 1068              	CLOCK_dispatch_KR_Mins:
 1069              	.LFB148:
  85:source\asw/swc_control.c ****     CLOCK_DISPATCH_WRAPPER(WIDGET_MIN, EV_KEYRIGHT);
 1070              		.loc 1 85 0
 1071              		.cfi_startproc
 1072              		@ args = 0, pretend = 0, frame = 0
 1073              		@ frame_needed = 0, uses_anonymous_args = 0
 1074 0000 08B5     		push	{r3, lr}
 1075              		.cfi_def_cfa_offset 8
 1076              		.cfi_offset 3, -8
 1077              		.cfi_offset 14, -4
  86:source\asw/swc_control.c ****     return;
 1078              		.loc 1 86 0
 1079 0002 0121     		movs	r1, #1
 1080 0004 0846     		mov	r0, r1
 1081 0006 FFF7FEFF 		bl	CLOCK_DISPATCH_WRAPPER
 1082              	.LVL105:
 1083 000a 08BD     		pop	{r3, pc}
 1084              		.cfi_endproc
 1085              	.LFE148:
 1086              		.size	CLOCK_dispatch_KR_Mins, .-CLOCK_dispatch_KR_Mins
 1087              		.section	.text.CLOCK_dispatch_KL_Mins,"ax",%progbits
 1088              		.align	2
 1089              		.thumb
 1090              		.thumb_func
ARM GAS  C:\Users\zakis\AppData\Local\Temp\ccEVpWju.s 			page 31


 1091              		.type	CLOCK_dispatch_KL_Mins, %function
 1092              	CLOCK_dispatch_KL_Mins:
 1093              	.LFB145:
  68:source\asw/swc_control.c ****     CLOCK_DISPATCH_WRAPPER(WIDGET_MIN, EV_KEYLEFT);
 1094              		.loc 1 68 0
 1095              		.cfi_startproc
 1096              		@ args = 0, pretend = 0, frame = 0
 1097              		@ frame_needed = 0, uses_anonymous_args = 0
 1098 0000 08B5     		push	{r3, lr}
 1099              		.cfi_def_cfa_offset 8
 1100              		.cfi_offset 3, -8
 1101              		.cfi_offset 14, -4
  69:source\asw/swc_control.c ****     return;
 1102              		.loc 1 69 0
 1103 0002 0021     		movs	r1, #0
 1104 0004 0120     		movs	r0, #1
 1105 0006 FFF7FEFF 		bl	CLOCK_DISPATCH_WRAPPER
 1106              	.LVL106:
 1107 000a 08BD     		pop	{r3, pc}
 1108              		.cfi_endproc
 1109              	.LFE145:
 1110              		.size	CLOCK_dispatch_KL_Mins, .-CLOCK_dispatch_KL_Mins
 1111              		.section	.text.CONTROL_runStateMachine_run,"ax",%progbits
 1112              		.align	2
 1113              		.global	CONTROL_runStateMachine_run
 1114              		.thumb
 1115              		.thumb_func
 1116              		.type	CONTROL_runStateMachine_run, %function
 1117              	CONTROL_runStateMachine_run:
 1118              	.LFB143:
  47:source\asw/swc_control.c **** 	
 1119              		.loc 1 47 0
 1120              		.cfi_startproc
 1121              		@ args = 0, pretend = 0, frame = 0
 1122              		@ frame_needed = 0, uses_anonymous_args = 0
 1123              	.LVL107:
 1124 0000 10B5     		push	{r4, lr}
 1125              		.cfi_def_cfa_offset 8
 1126              		.cfi_offset 4, -8
 1127              		.cfi_offset 14, -4
 1128              	.LVL108:
 1129              	.LBB54:
 1130              	.LBB55:
 1131              		.file 3 ".\\source\\rte/sc_events.h"
   1:.\source\rte/sc_events.h **** 
   2:.\source\rte/sc_events.h **** 
   3:.\source\rte/sc_events.h **** /**
   4:.\source\rte/sc_events.h ****  *  file    SC_EVENTS_signal.h
   5:.\source\rte/sc_events.h ****  *
   6:.\source\rte/sc_events.h ****  *  brief   signal base class for signal sc_events
   7:.\source\rte/sc_events.h ****  *
   8:.\source\rte/sc_events.h ****  *  author  Autogenerated, Peter Fromm       <peter.fromm@h-da.de>
   9:.\source\rte/sc_events.h ****  *
  10:.\source\rte/sc_events.h ****  * description: Signalclass
  11:.\source\rte/sc_events.h ****  * name: sc_events
  12:.\source\rte/sc_events.h ****  * shortname: events
  13:.\source\rte/sc_events.h ****  *
ARM GAS  C:\Users\zakis\AppData\Local\Temp\ccEVpWju.s 			page 32


  14:.\source\rte/sc_events.h ****  */
  15:.\source\rte/sc_events.h **** 
  16:.\source\rte/sc_events.h **** 
  17:.\source\rte/sc_events.h **** 
  18:.\source\rte/sc_events.h **** #ifndef SC_EVENTS_SIGNAL_H_INCLUDED
  19:.\source\rte/sc_events.h **** #define SC_EVENTS_SIGNAL_H_INCLUDED
  20:.\source\rte/sc_events.h **** 
  21:.\source\rte/sc_events.h **** /*================================================[ public includes  ]=============================
  22:.\source\rte/sc_events.h **** #include "global.h"
  23:.\source\rte/sc_events.h **** #include "project.h"
  24:.\source\rte/sc_events.h **** #include "rte.h"
  25:.\source\rte/sc_events.h **** #include "rte_types.h"
  26:.\source\rte/sc_events.h **** 
  27:.\source\rte/sc_events.h **** #include "sc_events_type.h"
  28:.\source\rte/sc_events.h **** 
  29:.\source\rte/sc_events.h **** 
  30:.\source\rte/sc_events.h **** /**************************************************************************************************
  31:.\source\rte/sc_events.h **** /* The driver API block																						*/
  32:.\source\rte/sc_events.h **** /**************************************************************************************************
  33:.\source\rte/sc_events.h ****                                                                                                    
  34:.\source\rte/sc_events.h **** /**
  35:.\source\rte/sc_events.h ****  *  Definition of function types for driver interfaces.
  36:.\source\rte/sc_events.h ****  *  I-Port
  37:.\source\rte/sc_events.h ****  */
  38:.\source\rte/sc_events.h **** typedef RC_t (*SC_EVENTS_driverIn_t)(SC_EVENTS_data_t * const);
  39:.\source\rte/sc_events.h **** 
  40:.\source\rte/sc_events.h **** /**
  41:.\source\rte/sc_events.h ****  *  Definition of function types for driver interfaces.
  42:.\source\rte/sc_events.h ****  *  O-Port
  43:.\source\rte/sc_events.h ****  */
  44:.\source\rte/sc_events.h **** typedef RC_t (*SC_EVENTS_driverOut_t)( const SC_EVENTS_data_t * const);
  45:.\source\rte/sc_events.h **** 
  46:.\source\rte/sc_events.h **** 
  47:.\source\rte/sc_events.h **** /**************************************************************************************************
  48:.\source\rte/sc_events.h **** /* The signal configuration API block																				*/
  49:.\source\rte/sc_events.h **** /**************************************************************************************************
  50:.\source\rte/sc_events.h **** 
  51:.\source\rte/sc_events.h **** /**
  52:.\source\rte/sc_events.h ****  * Instances of the struct SC_EVENTS_cfg_t represent the signal object configuration.
  53:.\source\rte/sc_events.h ****  */
  54:.\source\rte/sc_events.h **** struct SC_EVENTS_cfg_s
  55:.\source\rte/sc_events.h **** {
  56:.\source\rte/sc_events.h ****     /**
  57:.\source\rte/sc_events.h ****      * Function pointer to the input driver
  58:.\source\rte/sc_events.h ****      */
  59:.\source\rte/sc_events.h ****     SC_EVENTS_driverIn_t const inDriver;
  60:.\source\rte/sc_events.h **** 
  61:.\source\rte/sc_events.h ****     /**
  62:.\source\rte/sc_events.h ****      * Function pointer to the output driver table
  63:.\source\rte/sc_events.h ****      */
  64:.\source\rte/sc_events.h ****    SC_EVENTS_driverOut_t const outDriver;
  65:.\source\rte/sc_events.h ****    
  66:.\source\rte/sc_events.h ****     /**
  67:.\source\rte/sc_events.h ****      * Event onUpdate
  68:.\source\rte/sc_events.h ****      */
  69:.\source\rte/sc_events.h ****     EventMaskType const evOnUpdate;
  70:.\source\rte/sc_events.h ****     
ARM GAS  C:\Users\zakis\AppData\Local\Temp\ccEVpWju.s 			page 33


  71:.\source\rte/sc_events.h ****     
  72:.\source\rte/sc_events.h ****     /**
  73:.\source\rte/sc_events.h ****      * Event onError
  74:.\source\rte/sc_events.h ****      */
  75:.\source\rte/sc_events.h ****     EventMaskType const evOnError;
  76:.\source\rte/sc_events.h ****     
  77:.\source\rte/sc_events.h ****     /**
  78:.\source\rte/sc_events.h ****      * Task Count onUpdate
  79:.\source\rte/sc_events.h ****      */
  80:.\source\rte/sc_events.h ****     size_t const onUpdateTaskCount;
  81:.\source\rte/sc_events.h **** 
  82:.\source\rte/sc_events.h ****     /**
  83:.\source\rte/sc_events.h ****      * Task List onUpdate
  84:.\source\rte/sc_events.h ****      */
  85:.\source\rte/sc_events.h ****     TaskTypeArray* const onUpdateTasks;
  86:.\source\rte/sc_events.h ****     
  87:.\source\rte/sc_events.h ****     /**
  88:.\source\rte/sc_events.h ****      * Task Count onError
  89:.\source\rte/sc_events.h ****      */
  90:.\source\rte/sc_events.h ****     size_t const onErrorTaskCount;
  91:.\source\rte/sc_events.h **** 
  92:.\source\rte/sc_events.h ****     /**
  93:.\source\rte/sc_events.h ****      * Task List onError
  94:.\source\rte/sc_events.h ****      */
  95:.\source\rte/sc_events.h ****     TaskTypeArray* const onErrorTasks;
  96:.\source\rte/sc_events.h **** 	
  97:.\source\rte/sc_events.h **** 	
  98:.\source\rte/sc_events.h **** 	/**
  99:.\source\rte/sc_events.h **** 	 * Ressourse is active? We need an additional boolean as a ressource value 0 is valid.
 100:.\source\rte/sc_events.h **** 	 */
 101:.\source\rte/sc_events.h **** 	 boolean_t const resourceActive;
 102:.\source\rte/sc_events.h **** 	 
 103:.\source\rte/sc_events.h **** 	/**
 104:.\source\rte/sc_events.h **** 	 * Ressourse 
 105:.\source\rte/sc_events.h **** 	 */
 106:.\source\rte/sc_events.h **** 	 ResourceType const resource;
 107:.\source\rte/sc_events.h **** 
 108:.\source\rte/sc_events.h **** };                                                                                                 
 109:.\source\rte/sc_events.h **** typedef const struct SC_EVENTS_cfg_s SC_EVENTS_cfg_t;
 110:.\source\rte/sc_events.h ****                               
 111:.\source\rte/sc_events.h **** /**************************************************************************************************
 112:.\source\rte/sc_events.h **** /* The data interface block																							*/
 113:.\source\rte/sc_events.h **** /**************************************************************************************************
 114:.\source\rte/sc_events.h **** 
 115:.\source\rte/sc_events.h ****                                                                                                    
 116:.\source\rte/sc_events.h **** 							  
 117:.\source\rte/sc_events.h **** /**
 118:.\source\rte/sc_events.h ****  * Instances of the struct SC_EVENTS_t represent the signal objects.
 119:.\source\rte/sc_events.h ****  * A signal object contains the current application value 'value' as well as relevant meta data.
 120:.\source\rte/sc_events.h ****  */
 121:.\source\rte/sc_events.h **** struct SC_EVENTS_s
 122:.\source\rte/sc_events.h **** {                                                                                                  
 123:.\source\rte/sc_events.h **** 
 124:.\source\rte/sc_events.h **** 	/**
 125:.\source\rte/sc_events.h **** 	 * Data buffer for the application value
 126:.\source\rte/sc_events.h **** 	 */
 127:.\source\rte/sc_events.h ****     SC_EVENTS_data_t value;
ARM GAS  C:\Users\zakis\AppData\Local\Temp\ccEVpWju.s 			page 34


 128:.\source\rte/sc_events.h **** 
 129:.\source\rte/sc_events.h ****     /**
 130:.\source\rte/sc_events.h ****      * Current signal status
 131:.\source\rte/sc_events.h ****      */
 132:.\source\rte/sc_events.h ****     RTE_signalStatus_t status;
 133:.\source\rte/sc_events.h **** 
 134:.\source\rte/sc_events.h ****     /**
 135:.\source\rte/sc_events.h ****      * Current age of the signal (in calling cycles)
 136:.\source\rte/sc_events.h ****      */
 137:.\source\rte/sc_events.h ****     uint32_t age;
 138:.\source\rte/sc_events.h **** 
 139:.\source\rte/sc_events.h ****     /**
 140:.\source\rte/sc_events.h ****      * Pointer to the signal configuration
 141:.\source\rte/sc_events.h ****      */
 142:.\source\rte/sc_events.h **** 	const SC_EVENTS_cfg_t * const    pSigCfg;
 143:.\source\rte/sc_events.h **** 
 144:.\source\rte/sc_events.h **** };                                                                                                 
 145:.\source\rte/sc_events.h **** typedef struct SC_EVENTS_s SC_EVENTS_t;
 146:.\source\rte/sc_events.h **** 
 147:.\source\rte/sc_events.h **** /**************************************************************************************************
 148:.\source\rte/sc_events.h **** /* Signal initialisation   																							*/
 149:.\source\rte/sc_events.h **** /**************************************************************************************************
 150:.\source\rte/sc_events.h **** 
 151:.\source\rte/sc_events.h **** /**
 152:.\source\rte/sc_events.h ****  * Initializes a signal instance with a passed init value.
 153:.\source\rte/sc_events.h ****  * Depending on the configured conversion or scaling function the raw_value will be calculated.
 154:.\source\rte/sc_events.h ****  * Signal status will change from RTE_SIGNALSTATUS_STARTUP to RTE_SIGNALSTATUS_INITIALIZED.
 155:.\source\rte/sc_events.h ****  *
 156:.\source\rte/sc_events.h ****  * @param  SC_EVENTS_t * const signal: Pointer to the signal object which will be initialised
 157:.\source\rte/sc_events.h ****  * @return RC_t: standard return code, currently only RC_SUCCESS
 158:.\source\rte/sc_events.h ****  *
 159:.\source\rte/sc_events.h ****  **/
 160:.\source\rte/sc_events.h **** inline RC_t RTE_SC_EVENTS_init( SC_EVENTS_t * const signal )
 161:.\source\rte/sc_events.h **** {                                                                                                  
 162:.\source\rte/sc_events.h **** 
 163:.\source\rte/sc_events.h ****    RC_t ret = RC_SUCCESS;
 164:.\source\rte/sc_events.h **** 
 165:.\source\rte/sc_events.h ****    //Set value and raw value
 166:.\source\rte/sc_events.h ****    signal->value  = SC_EVENTS_INIT_DATA;
 167:.\source\rte/sc_events.h ****    signal->age    = 0;
 168:.\source\rte/sc_events.h ****    signal->status = RTE_SIGNALSTATUS_INITIALIZED;
 169:.\source\rte/sc_events.h **** 
 170:.\source\rte/sc_events.h ****    return ret;
 171:.\source\rte/sc_events.h **** }
 172:.\source\rte/sc_events.h **** 
 173:.\source\rte/sc_events.h **** /**************************************************************************************************
 174:.\source\rte/sc_events.h **** /* Status and timeout control																						*/
 175:.\source\rte/sc_events.h **** /**************************************************************************************************
 176:.\source\rte/sc_events.h **** 
 177:.\source\rte/sc_events.h **** /**
 178:.\source\rte/sc_events.h ****  *  Returns the current signal status of the passed signal instance.
 179:.\source\rte/sc_events.h ****  *
 180:.\source\rte/sc_events.h ****  * @param  SC_EVENTS_t * const signal: Pointer to the signal object
 181:.\source\rte/sc_events.h ****  * @return  sig_status_t: The current signal status
 182:.\source\rte/sc_events.h ****  *
 183:.\source\rte/sc_events.h ****  **/
 184:.\source\rte/sc_events.h **** inline RTE_signalStatus_t RTE_SC_EVENTS_getStatus( const SC_EVENTS_t * const signal )
ARM GAS  C:\Users\zakis\AppData\Local\Temp\ccEVpWju.s 			page 35


 185:.\source\rte/sc_events.h **** {
 186:.\source\rte/sc_events.h ****    return signal->status;
 187:.\source\rte/sc_events.h **** }
 188:.\source\rte/sc_events.h **** 
 189:.\source\rte/sc_events.h **** 
 190:.\source\rte/sc_events.h **** /**
 191:.\source\rte/sc_events.h ****  *  Sets a new signal status of the passed signal instance by passing the new status.
 192:.\source\rte/sc_events.h ****  *
 193:.\source\rte/sc_events.h ****  * @param  SC_EVENTS_t * const signal: Pointer to the signal object
 194:.\source\rte/sc_events.h ****  * @param  const sig_status_t status: New signal status
 195:.\source\rte/sc_events.h ****  * @return RC_t: standard return code, currently only RC_SUCCESS
 196:.\source\rte/sc_events.h ****  *
 197:.\source\rte/sc_events.h ****  */
 198:.\source\rte/sc_events.h **** inline RC_t RTE_SC_EVENTS_setStatus( SC_EVENTS_t * const signal, const RTE_signalStatus_t status )
 199:.\source\rte/sc_events.h **** {
 200:.\source\rte/sc_events.h ****    signal->status = status;
 201:.\source\rte/sc_events.h ****    size_t taskNum=0;
 202:.\source\rte/sc_events.h ****    
 203:.\source\rte/sc_events.h ****    //Fire error events in case of invalid state
 204:.\source\rte/sc_events.h ****    if (signal->status == RTE_SIGNALSTATUS_INVALID)
 205:.\source\rte/sc_events.h ****    {
 206:.\source\rte/sc_events.h **** 	    //Pointer to the Taskarray, containing the tasks receiving the onUpdate events
 207:.\source\rte/sc_events.h **** 		TaskTypeArray* pTaskArray = signal->pSigCfg->onErrorTasks;
 208:.\source\rte/sc_events.h **** 
 209:.\source\rte/sc_events.h **** 		if (0 != signal->pSigCfg->evOnError && NULL != pTaskArray){
 210:.\source\rte/sc_events.h **** 			for( taskNum=0 ; taskNum < signal->pSigCfg->onErrorTaskCount ;taskNum++){
 211:.\source\rte/sc_events.h **** 				TaskType task = (*pTaskArray)[taskNum];
 212:.\source\rte/sc_events.h **** 				SetEvent( task, signal->pSigCfg->evOnError);
 213:.\source\rte/sc_events.h **** 			}
 214:.\source\rte/sc_events.h **** 		}
 215:.\source\rte/sc_events.h ****    }
 216:.\source\rte/sc_events.h ****    
 217:.\source\rte/sc_events.h ****    return RC_SUCCESS;
 218:.\source\rte/sc_events.h **** }
 219:.\source\rte/sc_events.h **** 
 220:.\source\rte/sc_events.h **** 
 221:.\source\rte/sc_events.h **** /**
 222:.\source\rte/sc_events.h ****  * Returns the count of refreshing trials (refresh, set or set_raw) that failed.
 223:.\source\rte/sc_events.h ****  * Prerquisite: The signal is refreshed cyclically
 224:.\source\rte/sc_events.h ****  *
 225:.\source\rte/sc_events.h ****  * @param  SC_EVENTS_t * const signal: Pointer to the signal object
 226:.\source\rte/sc_events.h ****  * @return uint32_t: Number of cycles since the signal has been updated for the last time
 227:.\source\rte/sc_events.h ****  */
 228:.\source\rte/sc_events.h **** inline uint32_t RTE_SC_EVENTS_getAge( const SC_EVENTS_t * const signal )
 229:.\source\rte/sc_events.h **** {
 230:.\source\rte/sc_events.h ****    return signal->age;
 231:.\source\rte/sc_events.h **** }
 232:.\source\rte/sc_events.h **** 
 233:.\source\rte/sc_events.h **** /**
 234:.\source\rte/sc_events.h ****  * Should be called by application or driver if no new value can be provided.
 235:.\source\rte/sc_events.h ****  * @param  SC_EVENTS_t * const signal: Pointer to the signal object
 236:.\source\rte/sc_events.h ****  * @param uint32_t increment: incrementvalue, typically in [ms]
 237:.\source\rte/sc_events.h ****  * @return void
 238:.\source\rte/sc_events.h ****  */
 239:.\source\rte/sc_events.h **** inline void RTE_SC_EVENTS_incAge(  SC_EVENTS_t * const signal , uint32_t increment)
 240:.\source\rte/sc_events.h **** {
 241:.\source\rte/sc_events.h **** 	   //Hack....
ARM GAS  C:\Users\zakis\AppData\Local\Temp\ccEVpWju.s 			page 36


 242:.\source\rte/sc_events.h **** 	   if ( 0xFFFF0000 > (signal->age + increment) )
 243:.\source\rte/sc_events.h **** 	   {
 244:.\source\rte/sc_events.h **** 	      signal->age += increment;
 245:.\source\rte/sc_events.h **** 	   }
 246:.\source\rte/sc_events.h **** }
 247:.\source\rte/sc_events.h **** 
 248:.\source\rte/sc_events.h **** 
 249:.\source\rte/sc_events.h **** /**************************************************************************************************
 250:.\source\rte/sc_events.h **** /* Application Data read/write Interface																			*/
 251:.\source\rte/sc_events.h **** /**************************************************************************************************
 252:.\source\rte/sc_events.h **** 
 253:.\source\rte/sc_events.h **** /**
 254:.\source\rte/sc_events.h ****  * Returns the current application value as pointer to the signal payload.
 255:.\source\rte/sc_events.h ****  * Careful: This is not threadsafe!!!
 256:.\source\rte/sc_events.h ****  *
 257:.\source\rte/sc_events.h ****  * @param  SC_EVENTS_t * const signal: Pointer to the signal object
 258:.\source\rte/sc_events.h ****  * @return sc_events_data_t*: pointer to the current value of the application data buffer
 259:.\source\rte/sc_events.h ****  *
 260:.\source\rte/sc_events.h ****  **/
 261:.\source\rte/sc_events.h **** inline SC_EVENTS_data_t* RTE_SC_EVENTS_getPtr( SC_EVENTS_t * const signal )
 262:.\source\rte/sc_events.h **** {               
 263:.\source\rte/sc_events.h ****    //Todo: Critical region cannot be protected using return values																						
 264:.\source\rte/sc_events.h ****    return &(signal->value);                                                                        
 265:.\source\rte/sc_events.h **** }
 266:.\source\rte/sc_events.h **** 
 267:.\source\rte/sc_events.h **** /**
 268:.\source\rte/sc_events.h ****  * Returns the current application value of the passed signal instance.
 269:.\source\rte/sc_events.h ****  *
 270:.\source\rte/sc_events.h ****  * @param  SC_EVENTS_t * const signal: Pointer to the signal object
 271:.\source\rte/sc_events.h ****  * @return sc_events_data_t: current value of the application data buffer
 272:.\source\rte/sc_events.h ****  *
 273:.\source\rte/sc_events.h ****  **/
 274:.\source\rte/sc_events.h **** inline SC_EVENTS_data_t RTE_SC_EVENTS_get( const SC_EVENTS_t * const signal )
 275:.\source\rte/sc_events.h **** {               
 276:.\source\rte/sc_events.h ****    //Todo: Critical region cannot be protected using return values																						
 277:.\source\rte/sc_events.h ****    return signal->value;                                                                           
 278:.\source\rte/sc_events.h **** }                                                                                                  
 279:.\source\rte/sc_events.h ****                                                                                                    
 280:.\source\rte/sc_events.h **** /**
 281:.\source\rte/sc_events.h ****  * Returns the current application value of the passed signal instance threadsafe.
 282:.\source\rte/sc_events.h ****  *
 283:.\source\rte/sc_events.h ****  * @param  SC_EVENTS_t * const signal: Pointer to the signal object
 284:.\source\rte/sc_events.h ****  * @param  SC_EVENTS_data_t* data: Pointer to the return data Pointer to the signal object
 285:.\source\rte/sc_events.h ****  * @return RC_SUCCESS
 286:.\source\rte/sc_events.h ****  *
 287:.\source\rte/sc_events.h ****  **/
 288:.\source\rte/sc_events.h **** inline RC_t RTE_SC_EVENTS_getThreadSafe( const SC_EVENTS_t * const signal, SC_EVENTS_data_t * const
 289:.\source\rte/sc_events.h **** {    
 290:.\source\rte/sc_events.h ****    if (TRUE == signal->pSigCfg->resourceActive) GetResource(signal->pSigCfg->resource);
 1132              		.loc 3 290 0
 1133 0002 0C4B     		ldr	r3, .L92
 1134 0004 9B68     		ldr	r3, [r3, #8]
 1135 0006 93F82020 		ldrb	r2, [r3, #32]	@ zero_extendqisi2
 1136 000a 012A     		cmp	r2, #1
 1137 000c 02D1     		bne	.L89
 1138 000e 586A     		ldr	r0, [r3, #36]
 1139              	.LVL109:
ARM GAS  C:\Users\zakis\AppData\Local\Temp\ccEVpWju.s 			page 37


 1140 0010 FFF7FEFF 		bl	EE_oo_GetResource
 1141              	.LVL110:
 1142              	.L89:
 291:.\source\rte/sc_events.h ****    *data = signal->value;
 1143              		.loc 3 291 0
 1144 0014 074B     		ldr	r3, .L92
 1145 0016 1C78     		ldrb	r4, [r3]	@ zero_extendqisi2
 292:.\source\rte/sc_events.h ****    if (TRUE == signal->pSigCfg->resourceActive) ReleaseResource(signal->pSigCfg->resource);        
 1146              		.loc 3 292 0
 1147 0018 9B68     		ldr	r3, [r3, #8]
 1148 001a 93F82020 		ldrb	r2, [r3, #32]	@ zero_extendqisi2
 1149 001e 012A     		cmp	r2, #1
 1150 0020 02D1     		bne	.L90
 1151 0022 586A     		ldr	r0, [r3, #36]
 1152 0024 FFF7FEFF 		bl	EE_oo_ReleaseResource
 1153              	.LVL111:
 1154              	.L90:
 1155              	.LBE55:
 1156              	.LBE54:
  55:source\asw/swc_control.c **** 
 1157              		.loc 1 55 0
 1158 0028 2146     		mov	r1, r4
 1159 002a 0348     		ldr	r0, .L92+4
 1160 002c FFF7FEFF 		bl	STATE_processEvent
 1161              	.LVL112:
 1162 0030 10BD     		pop	{r4, pc}
 1163              	.LVL113:
 1164              	.L93:
 1165 0032 00BF     		.align	2
 1166              	.L92:
 1167 0034 00000000 		.word	SO_EVENTS_signal
 1168 0038 10000000 		.word	.LANCHOR0+16
 1169              		.cfi_endproc
 1170              	.LFE143:
 1171              		.size	CONTROL_runStateMachine_run, .-CONTROL_runStateMachine_run
 1172              		.global	CLOCK_Widget_FSM
 1173              		.global	CLOCK_Widget_StateActions_Size
 1174              		.global	CLOCK_Widget_StateActions
 1175              		.global	CLOCK_Widget_Transitions_Size
 1176              		.global	CLOCK_Widget_Transitions
 1177              		.global	CLOCK_W_ISAUTOINCREMENTING_Transitions
 1178              		.global	STATE_CLOCK_W_ISEDITING_Transitions
 1179              		.global	STATE_CLOCK_W_ISDISPLAYING_Transitions
 1180              		.global	CLOCK_CONTAINER_FSM
 1181              		.global	CLOCK_Container_StateActions_Size
 1182              		.global	CLOCK_Container_StateActions
 1183              		.global	CLOCK_Container_Transitions_Size
 1184              		.global	CLOCK_Container_Transitions
 1185              		.global	STATE_CLOCK_C_ISEDITINGMins_Transitions
 1186              		.global	STATE_CLOCK_C_ISEDITINGHOURS_Transitions
 1187              		.global	STATE_CLOCK_C_ISDISPLAYING_Transitions
 1188              		.section	.rodata
 1189              		.align	2
 1190              		.type	CLOCK_Widget_StateActions_Size, %object
 1191              		.size	CLOCK_Widget_StateActions_Size, 2
 1192              	CLOCK_Widget_StateActions_Size:
 1193 0000 0300     		.short	3
ARM GAS  C:\Users\zakis\AppData\Local\Temp\ccEVpWju.s 			page 38


 1194 0002 0000     		.space	2
 1195              		.type	CLOCK_Widget_StateActions, %object
 1196              		.size	CLOCK_Widget_StateActions, 36
 1197              	CLOCK_Widget_StateActions:
 1198 0004 03       		.byte	3
 1199 0005 000000   		.space	3
 1200 0008 00000000 		.word	0
 1201 000c 00000000 		.word	0
 1202 0010 04       		.byte	4
 1203 0011 000000   		.space	3
 1204 0014 00000000 		.word	0
 1205 0018 00000000 		.word	0
 1206 001c 05       		.byte	5
 1207 001d 000000   		.space	3
 1208 0020 00000000 		.word	0
 1209 0024 00000000 		.word	0
 1210              		.type	CLOCK_Widget_Transitions_Size, %object
 1211              		.size	CLOCK_Widget_Transitions_Size, 2
 1212              	CLOCK_Widget_Transitions_Size:
 1213 0028 0300     		.short	3
 1214 002a 0000     		.space	2
 1215              		.type	CLOCK_Widget_Transitions, %object
 1216              		.size	CLOCK_Widget_Transitions, 36
 1217              	CLOCK_Widget_Transitions:
 1218 002c 03       		.byte	3
 1219 002d 000000   		.space	3
 1220 0030 00000000 		.word	STATE_CLOCK_W_ISDISPLAYING_Transitions
 1221 0034 0100     		.short	1
 1222 0036 0000     		.space	2
 1223 0038 04       		.byte	4
 1224 0039 000000   		.space	3
 1225 003c 00000000 		.word	STATE_CLOCK_W_ISEDITING_Transitions
 1226 0040 0300     		.short	3
 1227 0042 0000     		.space	2
 1228 0044 05       		.byte	5
 1229 0045 000000   		.space	3
 1230 0048 00000000 		.word	CLOCK_W_ISAUTOINCREMENTING_Transitions
 1231 004c 0200     		.short	2
 1232 004e 0000     		.space	2
 1233              		.type	CLOCK_W_ISAUTOINCREMENTING_Transitions, %object
 1234              		.size	CLOCK_W_ISAUTOINCREMENTING_Transitions, 24
 1235              	CLOCK_W_ISAUTOINCREMENTING_Transitions:
 1236 0050 01       		.byte	1
 1237 0051 04       		.byte	4
 1238 0052 0000     		.space	2
 1239 0054 00000000 		.word	0
 1240 0058 00000000 		.word	CLOCK_incrementWidget
 1241 005c 04       		.byte	4
 1242 005d 05       		.byte	5
 1243 005e 0000     		.space	2
 1244 0060 00000000 		.word	0
 1245 0064 00000000 		.word	CLOCK_incrementWidget
 1246              		.type	STATE_CLOCK_W_ISEDITING_Transitions, %object
 1247              		.size	STATE_CLOCK_W_ISEDITING_Transitions, 36
 1248              	STATE_CLOCK_W_ISEDITING_Transitions:
 1249 0068 01       		.byte	1
 1250 0069 04       		.byte	4
ARM GAS  C:\Users\zakis\AppData\Local\Temp\ccEVpWju.s 			page 39


 1251 006a 0000     		.space	2
 1252 006c 00000000 		.word	0
 1253 0070 00000000 		.word	CLOCK_incrementWidget
 1254 0074 02       		.byte	2
 1255 0075 05       		.byte	5
 1256 0076 0000     		.space	2
 1257 0078 00000000 		.word	0
 1258 007c 00000000 		.word	0
 1259 0080 00       		.byte	0
 1260 0081 03       		.byte	3
 1261 0082 0000     		.space	2
 1262 0084 00000000 		.word	0
 1263 0088 00000000 		.word	CLOCK_setDisplayFonts
 1264              		.type	STATE_CLOCK_W_ISDISPLAYING_Transitions, %object
 1265              		.size	STATE_CLOCK_W_ISDISPLAYING_Transitions, 12
 1266              	STATE_CLOCK_W_ISDISPLAYING_Transitions:
 1267 008c 00       		.byte	0
 1268 008d 04       		.byte	4
 1269 008e 0000     		.space	2
 1270 0090 00000000 		.word	0
 1271 0094 00000000 		.word	CLOCK_setEditFonts
 1272              		.type	CLOCK_Container_StateActions_Size, %object
 1273              		.size	CLOCK_Container_StateActions_Size, 2
 1274              	CLOCK_Container_StateActions_Size:
 1275 0098 0300     		.short	3
 1276 009a 0000     		.space	2
 1277              		.type	CLOCK_Container_StateActions, %object
 1278              		.size	CLOCK_Container_StateActions, 36
 1279              	CLOCK_Container_StateActions:
 1280 009c 00       		.byte	0
 1281 009d 000000   		.space	3
 1282 00a0 00000000 		.word	0
 1283 00a4 00000000 		.word	0
 1284 00a8 01       		.byte	1
 1285 00a9 000000   		.space	3
 1286 00ac 00000000 		.word	0
 1287 00b0 00000000 		.word	0
 1288 00b4 02       		.byte	2
 1289 00b5 000000   		.space	3
 1290 00b8 00000000 		.word	0
 1291 00bc 00000000 		.word	0
 1292              		.type	CLOCK_Container_Transitions_Size, %object
 1293              		.size	CLOCK_Container_Transitions_Size, 2
 1294              	CLOCK_Container_Transitions_Size:
 1295 00c0 0300     		.short	3
 1296 00c2 0000     		.space	2
 1297              		.type	CLOCK_Container_Transitions, %object
 1298              		.size	CLOCK_Container_Transitions, 36
 1299              	CLOCK_Container_Transitions:
 1300 00c4 00       		.byte	0
 1301 00c5 000000   		.space	3
 1302 00c8 00000000 		.word	STATE_CLOCK_C_ISDISPLAYING_Transitions
 1303 00cc 0200     		.short	2
 1304 00ce 0000     		.space	2
 1305 00d0 01       		.byte	1
 1306 00d1 000000   		.space	3
 1307 00d4 00000000 		.word	STATE_CLOCK_C_ISEDITINGHOURS_Transitions
ARM GAS  C:\Users\zakis\AppData\Local\Temp\ccEVpWju.s 			page 40


 1308 00d8 0400     		.short	4
 1309 00da 0000     		.space	2
 1310 00dc 02       		.byte	2
 1311 00dd 000000   		.space	3
 1312 00e0 00000000 		.word	STATE_CLOCK_C_ISEDITINGMins_Transitions
 1313 00e4 0400     		.short	4
 1314 00e6 0000     		.space	2
 1315              		.type	STATE_CLOCK_C_ISEDITINGMins_Transitions, %object
 1316              		.size	STATE_CLOCK_C_ISEDITINGMins_Transitions, 48
 1317              	STATE_CLOCK_C_ISEDITINGMins_Transitions:
 1318 00e8 00       		.byte	0
 1319 00e9 00       		.byte	0
 1320 00ea 0000     		.space	2
 1321 00ec 00000000 		.word	0
 1322 00f0 00000000 		.word	CLOCK_dispatch_KL_Mins
 1323 00f4 01       		.byte	1
 1324 00f5 02       		.byte	2
 1325 00f6 0000     		.space	2
 1326 00f8 00000000 		.word	0
 1327 00fc 00000000 		.word	CLOCK_dispatch_KR_Mins
 1328 0100 02       		.byte	2
 1329 0101 02       		.byte	2
 1330 0102 0000     		.space	2
 1331 0104 00000000 		.word	0
 1332 0108 00000000 		.word	CLOCK_dispatch_KRLP_Mins
 1333 010c 04       		.byte	4
 1334 010d 02       		.byte	2
 1335 010e 0000     		.space	2
 1336 0110 00000000 		.word	0
 1337 0114 00000000 		.word	CLOCK_dispatch_250MS_Mins
 1338              		.type	STATE_CLOCK_C_ISEDITINGHOURS_Transitions, %object
 1339              		.size	STATE_CLOCK_C_ISEDITINGHOURS_Transitions, 48
 1340              	STATE_CLOCK_C_ISEDITINGHOURS_Transitions:
 1341 0118 00       		.byte	0
 1342 0119 02       		.byte	2
 1343 011a 0000     		.space	2
 1344 011c 00000000 		.word	0
 1345 0120 00000000 		.word	CLOCK_dispatch_KL_HoursMins
 1346 0124 01       		.byte	1
 1347 0125 01       		.byte	1
 1348 0126 0000     		.space	2
 1349 0128 00000000 		.word	0
 1350 012c 00000000 		.word	CLOCK_dispatch_KR_Hours
 1351 0130 02       		.byte	2
 1352 0131 01       		.byte	1
 1353 0132 0000     		.space	2
 1354 0134 00000000 		.word	0
 1355 0138 00000000 		.word	CLOCK_dispatch_KRLP_Hours
 1356 013c 04       		.byte	4
 1357 013d 01       		.byte	1
 1358 013e 0000     		.space	2
 1359 0140 00000000 		.word	0
 1360 0144 00000000 		.word	CLOCK_dispatch_250MS_Hours
 1361              		.type	STATE_CLOCK_C_ISDISPLAYING_Transitions, %object
 1362              		.size	STATE_CLOCK_C_ISDISPLAYING_Transitions, 24
 1363              	STATE_CLOCK_C_ISDISPLAYING_Transitions:
 1364 0148 00       		.byte	0
ARM GAS  C:\Users\zakis\AppData\Local\Temp\ccEVpWju.s 			page 41


 1365 0149 01       		.byte	1
 1366 014a 0000     		.space	2
 1367 014c 00000000 		.word	0
 1368 0150 00000000 		.word	CLOCK_dispatch_KL_Hours
 1369 0154 03       		.byte	3
 1370 0155 00       		.byte	0
 1371 0156 0000     		.space	2
 1372 0158 00000000 		.word	0
 1373 015c 00000000 		.word	CLOCK_increment1Minute
 1374              		.data
 1375              		.align	2
 1376              		.set	.LANCHOR0,. + 0
 1377              		.type	CLOCK_Widget_FSM, %object
 1378              		.size	CLOCK_Widget_FSM, 16
 1379              	CLOCK_Widget_FSM:
 1380 0000 00000000 		.word	CLOCK_Widget_Transitions
 1381 0004 0300     		.short	3
 1382 0006 0000     		.space	2
 1383 0008 00000000 		.word	CLOCK_Widget_StateActions
 1384 000c 0300     		.short	3
 1385 000e 03       		.byte	3
 1386 000f 00       		.space	1
 1387              		.type	CLOCK_CONTAINER_FSM, %object
 1388              		.size	CLOCK_CONTAINER_FSM, 16
 1389              	CLOCK_CONTAINER_FSM:
 1390 0010 00000000 		.word	CLOCK_Container_Transitions
 1391 0014 0300     		.short	3
 1392 0016 0000     		.space	2
 1393 0018 00000000 		.word	CLOCK_Container_StateActions
 1394 001c 0300     		.short	3
 1395 001e 00       		.byte	0
 1396 001f 00       		.space	1
 1397              		.text
 1398              	.Letext0:
 1399              		.file 4 "c:\\program files (x86)\\cypress\\psoc creator\\4.4\\psoc creator\\import\\gnu\\arm\\5.4.
 1400              		.file 5 "c:\\program files (x86)\\cypress\\psoc creator\\4.4\\psoc creator\\import\\gnu\\arm\\5.4.
 1401              		.file 6 "c:\\program files (x86)\\cypress\\psoc creator\\4.4\\psoc creator\\import\\gnu\\arm\\5.4.
 1402              		.file 7 "Generated_Source\\PSoC5/ErikaOS_1_common_ee_types.inc"
 1403              		.file 8 "Generated_Source\\PSoC5/ErikaOS_1_cortex_mx_ee_cpu.inc"
 1404              		.file 9 "Generated_Source\\PSoC5/ErikaOS_1_ee_oo_common.inc"
 1405              		.file 10 ".\\source\\bsw/global.h"
 1406              		.file 11 ".\\source/rte_types.h"
 1407              		.file 12 ".\\source/rte.h"
 1408              		.file 13 ".\\source\\bsw/statemachine_type.h"
 1409              		.file 14 ".\\source\\rte/sc_events_type.h"
 1410              		.file 15 ".\\source\\rte/sc_clockdata_type.h"
 1411              		.file 16 ".\\source\\bsw/statemachine.h"
 1412              		.file 17 "source\\asw\\statemachine_clock.h"
 1413              		.file 18 "Generated_Source\\PSoC5/ErikaOS_1_ee_oo_intfunc.inc"
 1414              		.file 19 "Generated_Source\\PSoC5/ErikaOS_1_cortex_mx_ee_context.inc"
 1415              		.file 20 "Generated_Source\\PSoC5/ErikaOS_1_common_ee_primitives.inc"
 1416              		.file 21 "Generated_Source\\PSoC5/core_cm3.h"
 1417              		.file 22 ".\\source\\rte/sp_common.h"
 1418              		.file 23 "Generated_Source\\PSoC5/ErikaOS_1_ee_oo_kernel.inc"