ARM GAS  C:\Users\zakis\AppData\Local\Temp\ccvN5P7b.s 			page 1


   1              		.syntax unified
   2              		.cpu cortex-m3
   3              		.fpu softvfp
   4              		.eabi_attribute 20, 1
   5              		.eabi_attribute 21, 1
   6              		.eabi_attribute 23, 3
   7              		.eabi_attribute 24, 1
   8              		.eabi_attribute 25, 1
   9              		.eabi_attribute 26, 1
  10              		.eabi_attribute 30, 1
  11              		.eabi_attribute 34, 1
  12              		.eabi_attribute 18, 4
  13              		.thumb
  14              		.syntax unified
  15              		.file	"swc_input.c"
  16              		.text
  17              	.Ltext0:
  18              		.cfi_sections	.debug_frame
  19              		.section	.text.INPUT_readButtons_run,"ax",%progbits
  20              		.align	2
  21              		.global	INPUT_readButtons_run
  22              		.thumb
  23              		.thumb_func
  24              		.type	INPUT_readButtons_run, %function
  25              	INPUT_readButtons_run:
  26              	.LFB143:
  27              		.file 1 "source\\asw\\swc_input.c"
   1:source\asw/swc_input.c **** /*
   2:source\asw/swc_input.c ****  * Filename: swc_input.c
   3:source\asw/swc_input.c ****  *
   4:source\asw/swc_input.c ****  * Author: Autogenerated by H-DA RTE Generator, (c) Prof. Fromm
   5:source\asw/swc_input.c ****  *
   6:source\asw/swc_input.c ****  * description: Software component
   7:source\asw/swc_input.c ****  * name: swc_input
   8:source\asw/swc_input.c ****  * shortname: input
   9:source\asw/swc_input.c ****  *
  10:source\asw/swc_input.c ****  */
  11:source\asw/swc_input.c **** 
  12:source\asw/swc_input.c **** #include "project.h"
  13:source\asw/swc_input.c **** #include "global.h"
  14:source\asw/swc_input.c **** #include "rte.h"
  15:source\asw/swc_input.c **** #include "rte_types.h"
  16:source\asw/swc_input.c **** #include "swc_input.h"
  17:source\asw/swc_input.c **** 
  18:source\asw/swc_input.c **** 
  19:source\asw/swc_input.c **** 
  20:source\asw/swc_input.c **** /* USER CODE START SWC_INPUT_INCLUDE */
  21:source\asw/swc_input.c **** 
  22:source\asw/swc_input.c **** /* USER CODE END SWC_INPUT_INCLUDE */
  23:source\asw/swc_input.c **** 
  24:source\asw/swc_input.c **** 
  25:source\asw/swc_input.c **** #include "sp_common.h"
  26:source\asw/swc_input.c **** 
  27:source\asw/swc_input.c **** /* USER CODE START SWC_INPUT_USERDEFINITIONS */
  28:source\asw/swc_input.c **** 
  29:source\asw/swc_input.c **** /* USER CODE END SWC_INPUT_USERDEFINITIONS */
  30:source\asw/swc_input.c **** 
ARM GAS  C:\Users\zakis\AppData\Local\Temp\ccvN5P7b.s 			page 2


  31:source\asw/swc_input.c **** 
  32:source\asw/swc_input.c **** 
  33:source\asw/swc_input.c **** /*
  34:source\asw/swc_input.c ****  * component: swc_input
  35:source\asw/swc_input.c ****  * cycletime: 0
  36:source\asw/swc_input.c ****  * description: Runnable
  37:source\asw/swc_input.c ****  * events: ev_ButtonsPressed
  38:source\asw/swc_input.c ****  * name: INPUT_readButtons_run
  39:source\asw/swc_input.c ****  * shortname: readButtons
  40:source\asw/swc_input.c ****  * signalIN: so_buttons
  41:source\asw/swc_input.c ****  * signalOUT: so_events
  42:source\asw/swc_input.c ****  * task: tsk_input
  43:source\asw/swc_input.c ****  */
  44:source\asw/swc_input.c **** void INPUT_readButtons_run(RTE_event ev){
  28              		.loc 1 44 0
  29              		.cfi_startproc
  30              		@ args = 0, pretend = 0, frame = 16
  31              		@ frame_needed = 0, uses_anonymous_args = 0
  32              	.LVL0:
  33 0000 30B5     		push	{r4, r5, lr}
  34              		.cfi_def_cfa_offset 12
  35              		.cfi_offset 4, -12
  36              		.cfi_offset 5, -8
  37              		.cfi_offset 14, -4
  38 0002 85B0     		sub	sp, sp, #20
  39              		.cfi_def_cfa_offset 32
  40              	.LVL1:
  41              	.LBB37:
  42              	.LBB38:
  43              		.file 2 ".\\source\\rte/sc_buttons.h"
   1:.\source\rte/sc_buttons.h **** 
   2:.\source\rte/sc_buttons.h **** 
   3:.\source\rte/sc_buttons.h **** /**
   4:.\source\rte/sc_buttons.h ****  *  file    SC_BUTTONS_signal.h
   5:.\source\rte/sc_buttons.h ****  *
   6:.\source\rte/sc_buttons.h ****  *  brief   signal base class for signal sc_buttons
   7:.\source\rte/sc_buttons.h ****  *
   8:.\source\rte/sc_buttons.h ****  *  author  Autogenerated, Peter Fromm       <peter.fromm@h-da.de>
   9:.\source\rte/sc_buttons.h ****  *
  10:.\source\rte/sc_buttons.h ****  * description: Signalclass
  11:.\source\rte/sc_buttons.h ****  * name: sc_buttons
  12:.\source\rte/sc_buttons.h ****  * shortname: buttons
  13:.\source\rte/sc_buttons.h ****  *
  14:.\source\rte/sc_buttons.h ****  */
  15:.\source\rte/sc_buttons.h **** 
  16:.\source\rte/sc_buttons.h **** 
  17:.\source\rte/sc_buttons.h **** 
  18:.\source\rte/sc_buttons.h **** #ifndef SC_BUTTONS_SIGNAL_H_INCLUDED
  19:.\source\rte/sc_buttons.h **** #define SC_BUTTONS_SIGNAL_H_INCLUDED
  20:.\source\rte/sc_buttons.h **** 
  21:.\source\rte/sc_buttons.h **** /*================================================[ public includes  ]=============================
  22:.\source\rte/sc_buttons.h **** #include "global.h"
  23:.\source\rte/sc_buttons.h **** #include "project.h"
  24:.\source\rte/sc_buttons.h **** #include "rte.h"
  25:.\source\rte/sc_buttons.h **** #include "rte_types.h"
  26:.\source\rte/sc_buttons.h **** 
  27:.\source\rte/sc_buttons.h **** #include "sc_buttons_type.h"
ARM GAS  C:\Users\zakis\AppData\Local\Temp\ccvN5P7b.s 			page 3


  28:.\source\rte/sc_buttons.h **** 
  29:.\source\rte/sc_buttons.h **** 
  30:.\source\rte/sc_buttons.h **** /**************************************************************************************************
  31:.\source\rte/sc_buttons.h **** /* The driver API block																						*/
  32:.\source\rte/sc_buttons.h **** /**************************************************************************************************
  33:.\source\rte/sc_buttons.h ****                                                                                                    
  34:.\source\rte/sc_buttons.h **** /**
  35:.\source\rte/sc_buttons.h ****  *  Definition of function types for driver interfaces.
  36:.\source\rte/sc_buttons.h ****  *  I-Port
  37:.\source\rte/sc_buttons.h ****  */
  38:.\source\rte/sc_buttons.h **** typedef RC_t (*SC_BUTTONS_driverIn_t)(SC_BUTTONS_data_t * const);
  39:.\source\rte/sc_buttons.h **** 
  40:.\source\rte/sc_buttons.h **** /**
  41:.\source\rte/sc_buttons.h ****  *  Definition of function types for driver interfaces.
  42:.\source\rte/sc_buttons.h ****  *  O-Port
  43:.\source\rte/sc_buttons.h ****  */
  44:.\source\rte/sc_buttons.h **** typedef RC_t (*SC_BUTTONS_driverOut_t)( const SC_BUTTONS_data_t * const);
  45:.\source\rte/sc_buttons.h **** 
  46:.\source\rte/sc_buttons.h **** 
  47:.\source\rte/sc_buttons.h **** /**************************************************************************************************
  48:.\source\rte/sc_buttons.h **** /* The signal configuration API block																				*/
  49:.\source\rte/sc_buttons.h **** /**************************************************************************************************
  50:.\source\rte/sc_buttons.h **** 
  51:.\source\rte/sc_buttons.h **** /**
  52:.\source\rte/sc_buttons.h ****  * Instances of the struct SC_BUTTONS_cfg_t represent the signal object configuration.
  53:.\source\rte/sc_buttons.h ****  */
  54:.\source\rte/sc_buttons.h **** struct SC_BUTTONS_cfg_s
  55:.\source\rte/sc_buttons.h **** {
  56:.\source\rte/sc_buttons.h ****     /**
  57:.\source\rte/sc_buttons.h ****      * Function pointer to the input driver
  58:.\source\rte/sc_buttons.h ****      */
  59:.\source\rte/sc_buttons.h ****     SC_BUTTONS_driverIn_t const inDriver;
  60:.\source\rte/sc_buttons.h **** 
  61:.\source\rte/sc_buttons.h ****     /**
  62:.\source\rte/sc_buttons.h ****      * Function pointer to the output driver table
  63:.\source\rte/sc_buttons.h ****      */
  64:.\source\rte/sc_buttons.h ****    SC_BUTTONS_driverOut_t const outDriver;
  65:.\source\rte/sc_buttons.h ****    
  66:.\source\rte/sc_buttons.h ****     /**
  67:.\source\rte/sc_buttons.h ****      * Event onUpdate
  68:.\source\rte/sc_buttons.h ****      */
  69:.\source\rte/sc_buttons.h ****     EventMaskType const evOnUpdate;
  70:.\source\rte/sc_buttons.h ****     
  71:.\source\rte/sc_buttons.h ****     
  72:.\source\rte/sc_buttons.h ****     /**
  73:.\source\rte/sc_buttons.h ****      * Event onError
  74:.\source\rte/sc_buttons.h ****      */
  75:.\source\rte/sc_buttons.h ****     EventMaskType const evOnError;
  76:.\source\rte/sc_buttons.h ****     
  77:.\source\rte/sc_buttons.h ****     /**
  78:.\source\rte/sc_buttons.h ****      * Task Count onUpdate
  79:.\source\rte/sc_buttons.h ****      */
  80:.\source\rte/sc_buttons.h ****     size_t const onUpdateTaskCount;
  81:.\source\rte/sc_buttons.h **** 
  82:.\source\rte/sc_buttons.h ****     /**
  83:.\source\rte/sc_buttons.h ****      * Task List onUpdate
  84:.\source\rte/sc_buttons.h ****      */
ARM GAS  C:\Users\zakis\AppData\Local\Temp\ccvN5P7b.s 			page 4


  85:.\source\rte/sc_buttons.h ****     TaskTypeArray* const onUpdateTasks;
  86:.\source\rte/sc_buttons.h ****     
  87:.\source\rte/sc_buttons.h ****     /**
  88:.\source\rte/sc_buttons.h ****      * Task Count onError
  89:.\source\rte/sc_buttons.h ****      */
  90:.\source\rte/sc_buttons.h ****     size_t const onErrorTaskCount;
  91:.\source\rte/sc_buttons.h **** 
  92:.\source\rte/sc_buttons.h ****     /**
  93:.\source\rte/sc_buttons.h ****      * Task List onError
  94:.\source\rte/sc_buttons.h ****      */
  95:.\source\rte/sc_buttons.h ****     TaskTypeArray* const onErrorTasks;
  96:.\source\rte/sc_buttons.h **** 	
  97:.\source\rte/sc_buttons.h **** 	
  98:.\source\rte/sc_buttons.h **** 	/**
  99:.\source\rte/sc_buttons.h **** 	 * Ressourse is active? We need an additional boolean as a ressource value 0 is valid.
 100:.\source\rte/sc_buttons.h **** 	 */
 101:.\source\rte/sc_buttons.h **** 	 boolean_t const resourceActive;
 102:.\source\rte/sc_buttons.h **** 	 
 103:.\source\rte/sc_buttons.h **** 	/**
 104:.\source\rte/sc_buttons.h **** 	 * Ressourse 
 105:.\source\rte/sc_buttons.h **** 	 */
 106:.\source\rte/sc_buttons.h **** 	 ResourceType const resource;
 107:.\source\rte/sc_buttons.h **** 
 108:.\source\rte/sc_buttons.h **** };                                                                                                 
 109:.\source\rte/sc_buttons.h **** typedef const struct SC_BUTTONS_cfg_s SC_BUTTONS_cfg_t;
 110:.\source\rte/sc_buttons.h ****                               
 111:.\source\rte/sc_buttons.h **** /**************************************************************************************************
 112:.\source\rte/sc_buttons.h **** /* The data interface block																							*/
 113:.\source\rte/sc_buttons.h **** /**************************************************************************************************
 114:.\source\rte/sc_buttons.h **** 
 115:.\source\rte/sc_buttons.h ****                                                                                                    
 116:.\source\rte/sc_buttons.h **** 							  
 117:.\source\rte/sc_buttons.h **** /**
 118:.\source\rte/sc_buttons.h ****  * Instances of the struct SC_BUTTONS_t represent the signal objects.
 119:.\source\rte/sc_buttons.h ****  * A signal object contains the current application value 'value' as well as relevant meta data.
 120:.\source\rte/sc_buttons.h ****  */
 121:.\source\rte/sc_buttons.h **** struct SC_BUTTONS_s
 122:.\source\rte/sc_buttons.h **** {                                                                                                  
 123:.\source\rte/sc_buttons.h **** 
 124:.\source\rte/sc_buttons.h **** 	/**
 125:.\source\rte/sc_buttons.h **** 	 * Data buffer for the application value
 126:.\source\rte/sc_buttons.h **** 	 */
 127:.\source\rte/sc_buttons.h ****     SC_BUTTONS_data_t value;
 128:.\source\rte/sc_buttons.h **** 
 129:.\source\rte/sc_buttons.h ****     /**
 130:.\source\rte/sc_buttons.h ****      * Current signal status
 131:.\source\rte/sc_buttons.h ****      */
 132:.\source\rte/sc_buttons.h ****     RTE_signalStatus_t status;
 133:.\source\rte/sc_buttons.h **** 
 134:.\source\rte/sc_buttons.h ****     /**
 135:.\source\rte/sc_buttons.h ****      * Current age of the signal (in calling cycles)
 136:.\source\rte/sc_buttons.h ****      */
 137:.\source\rte/sc_buttons.h ****     uint32_t age;
 138:.\source\rte/sc_buttons.h **** 
 139:.\source\rte/sc_buttons.h ****     /**
 140:.\source\rte/sc_buttons.h ****      * Pointer to the signal configuration
 141:.\source\rte/sc_buttons.h ****      */
ARM GAS  C:\Users\zakis\AppData\Local\Temp\ccvN5P7b.s 			page 5


 142:.\source\rte/sc_buttons.h **** 	const SC_BUTTONS_cfg_t * const    pSigCfg;
 143:.\source\rte/sc_buttons.h **** 
 144:.\source\rte/sc_buttons.h **** };                                                                                                 
 145:.\source\rte/sc_buttons.h **** typedef struct SC_BUTTONS_s SC_BUTTONS_t;
 146:.\source\rte/sc_buttons.h **** 
 147:.\source\rte/sc_buttons.h **** /**************************************************************************************************
 148:.\source\rte/sc_buttons.h **** /* Signal initialisation   																							*/
 149:.\source\rte/sc_buttons.h **** /**************************************************************************************************
 150:.\source\rte/sc_buttons.h **** 
 151:.\source\rte/sc_buttons.h **** /**
 152:.\source\rte/sc_buttons.h ****  * Initializes a signal instance with a passed init value.
 153:.\source\rte/sc_buttons.h ****  * Depending on the configured conversion or scaling function the raw_value will be calculated.
 154:.\source\rte/sc_buttons.h ****  * Signal status will change from RTE_SIGNALSTATUS_STARTUP to RTE_SIGNALSTATUS_INITIALIZED.
 155:.\source\rte/sc_buttons.h ****  *
 156:.\source\rte/sc_buttons.h ****  * @param  SC_BUTTONS_t * const signal: Pointer to the signal object which will be initialised
 157:.\source\rte/sc_buttons.h ****  * @return RC_t: standard return code, currently only RC_SUCCESS
 158:.\source\rte/sc_buttons.h ****  *
 159:.\source\rte/sc_buttons.h ****  **/
 160:.\source\rte/sc_buttons.h **** inline RC_t RTE_SC_BUTTONS_init( SC_BUTTONS_t * const signal )
 161:.\source\rte/sc_buttons.h **** {                                                                                                  
 162:.\source\rte/sc_buttons.h **** 
 163:.\source\rte/sc_buttons.h ****    RC_t ret = RC_SUCCESS;
 164:.\source\rte/sc_buttons.h **** 
 165:.\source\rte/sc_buttons.h ****    //Set value and raw value
 166:.\source\rte/sc_buttons.h ****    signal->value  = SC_BUTTONS_INIT_DATA;
 167:.\source\rte/sc_buttons.h ****    signal->age    = 0;
 168:.\source\rte/sc_buttons.h ****    signal->status = RTE_SIGNALSTATUS_INITIALIZED;
 169:.\source\rte/sc_buttons.h **** 
 170:.\source\rte/sc_buttons.h ****    return ret;
 171:.\source\rte/sc_buttons.h **** }
 172:.\source\rte/sc_buttons.h **** 
 173:.\source\rte/sc_buttons.h **** /**************************************************************************************************
 174:.\source\rte/sc_buttons.h **** /* Status and timeout control																						*/
 175:.\source\rte/sc_buttons.h **** /**************************************************************************************************
 176:.\source\rte/sc_buttons.h **** 
 177:.\source\rte/sc_buttons.h **** /**
 178:.\source\rte/sc_buttons.h ****  *  Returns the current signal status of the passed signal instance.
 179:.\source\rte/sc_buttons.h ****  *
 180:.\source\rte/sc_buttons.h ****  * @param  SC_BUTTONS_t * const signal: Pointer to the signal object
 181:.\source\rte/sc_buttons.h ****  * @return  sig_status_t: The current signal status
 182:.\source\rte/sc_buttons.h ****  *
 183:.\source\rte/sc_buttons.h ****  **/
 184:.\source\rte/sc_buttons.h **** inline RTE_signalStatus_t RTE_SC_BUTTONS_getStatus( const SC_BUTTONS_t * const signal )
 185:.\source\rte/sc_buttons.h **** {
 186:.\source\rte/sc_buttons.h ****    return signal->status;
 187:.\source\rte/sc_buttons.h **** }
 188:.\source\rte/sc_buttons.h **** 
 189:.\source\rte/sc_buttons.h **** 
 190:.\source\rte/sc_buttons.h **** /**
 191:.\source\rte/sc_buttons.h ****  *  Sets a new signal status of the passed signal instance by passing the new status.
 192:.\source\rte/sc_buttons.h ****  *
 193:.\source\rte/sc_buttons.h ****  * @param  SC_BUTTONS_t * const signal: Pointer to the signal object
 194:.\source\rte/sc_buttons.h ****  * @param  const sig_status_t status: New signal status
 195:.\source\rte/sc_buttons.h ****  * @return RC_t: standard return code, currently only RC_SUCCESS
 196:.\source\rte/sc_buttons.h ****  *
 197:.\source\rte/sc_buttons.h ****  */
 198:.\source\rte/sc_buttons.h **** inline RC_t RTE_SC_BUTTONS_setStatus( SC_BUTTONS_t * const signal, const RTE_signalStatus_t status 
ARM GAS  C:\Users\zakis\AppData\Local\Temp\ccvN5P7b.s 			page 6


 199:.\source\rte/sc_buttons.h **** {
 200:.\source\rte/sc_buttons.h ****    signal->status = status;
 201:.\source\rte/sc_buttons.h ****    size_t taskNum=0;
 202:.\source\rte/sc_buttons.h ****    
 203:.\source\rte/sc_buttons.h ****    //Fire error events in case of invalid state
 204:.\source\rte/sc_buttons.h ****    if (signal->status == RTE_SIGNALSTATUS_INVALID)
 205:.\source\rte/sc_buttons.h ****    {
 206:.\source\rte/sc_buttons.h **** 	    //Pointer to the Taskarray, containing the tasks receiving the onUpdate events
 207:.\source\rte/sc_buttons.h **** 		TaskTypeArray* pTaskArray = signal->pSigCfg->onErrorTasks;
 208:.\source\rte/sc_buttons.h **** 
 209:.\source\rte/sc_buttons.h **** 		if (0 != signal->pSigCfg->evOnError && NULL != pTaskArray){
 210:.\source\rte/sc_buttons.h **** 			for( taskNum=0 ; taskNum < signal->pSigCfg->onErrorTaskCount ;taskNum++){
 211:.\source\rte/sc_buttons.h **** 				TaskType task = (*pTaskArray)[taskNum];
 212:.\source\rte/sc_buttons.h **** 				SetEvent( task, signal->pSigCfg->evOnError);
 213:.\source\rte/sc_buttons.h **** 			}
 214:.\source\rte/sc_buttons.h **** 		}
 215:.\source\rte/sc_buttons.h ****    }
 216:.\source\rte/sc_buttons.h ****    
 217:.\source\rte/sc_buttons.h ****    return RC_SUCCESS;
 218:.\source\rte/sc_buttons.h **** }
 219:.\source\rte/sc_buttons.h **** 
 220:.\source\rte/sc_buttons.h **** 
 221:.\source\rte/sc_buttons.h **** /**
 222:.\source\rte/sc_buttons.h ****  * Returns the count of refreshing trials (refresh, set or set_raw) that failed.
 223:.\source\rte/sc_buttons.h ****  * Prerquisite: The signal is refreshed cyclically
 224:.\source\rte/sc_buttons.h ****  *
 225:.\source\rte/sc_buttons.h ****  * @param  SC_BUTTONS_t * const signal: Pointer to the signal object
 226:.\source\rte/sc_buttons.h ****  * @return uint32_t: Number of cycles since the signal has been updated for the last time
 227:.\source\rte/sc_buttons.h ****  */
 228:.\source\rte/sc_buttons.h **** inline uint32_t RTE_SC_BUTTONS_getAge( const SC_BUTTONS_t * const signal )
 229:.\source\rte/sc_buttons.h **** {
 230:.\source\rte/sc_buttons.h ****    return signal->age;
 231:.\source\rte/sc_buttons.h **** }
 232:.\source\rte/sc_buttons.h **** 
 233:.\source\rte/sc_buttons.h **** /**
 234:.\source\rte/sc_buttons.h ****  * Should be called by application or driver if no new value can be provided.
 235:.\source\rte/sc_buttons.h ****  * @param  SC_BUTTONS_t * const signal: Pointer to the signal object
 236:.\source\rte/sc_buttons.h ****  * @param uint32_t increment: incrementvalue, typically in [ms]
 237:.\source\rte/sc_buttons.h ****  * @return void
 238:.\source\rte/sc_buttons.h ****  */
 239:.\source\rte/sc_buttons.h **** inline void RTE_SC_BUTTONS_incAge(  SC_BUTTONS_t * const signal , uint32_t increment)
 240:.\source\rte/sc_buttons.h **** {
 241:.\source\rte/sc_buttons.h **** 	   //Hack....
 242:.\source\rte/sc_buttons.h **** 	   if ( 0xFFFF0000 > (signal->age + increment) )
 243:.\source\rte/sc_buttons.h **** 	   {
 244:.\source\rte/sc_buttons.h **** 	      signal->age += increment;
 245:.\source\rte/sc_buttons.h **** 	   }
 246:.\source\rte/sc_buttons.h **** }
 247:.\source\rte/sc_buttons.h **** 
 248:.\source\rte/sc_buttons.h **** 
 249:.\source\rte/sc_buttons.h **** /**************************************************************************************************
 250:.\source\rte/sc_buttons.h **** /* Application Data read/write Interface																			*/
 251:.\source\rte/sc_buttons.h **** /**************************************************************************************************
 252:.\source\rte/sc_buttons.h **** 
 253:.\source\rte/sc_buttons.h **** /**
 254:.\source\rte/sc_buttons.h ****  * Returns the current application value as pointer to the signal payload.
 255:.\source\rte/sc_buttons.h ****  * Careful: This is not threadsafe!!!
ARM GAS  C:\Users\zakis\AppData\Local\Temp\ccvN5P7b.s 			page 7


 256:.\source\rte/sc_buttons.h ****  *
 257:.\source\rte/sc_buttons.h ****  * @param  SC_BUTTONS_t * const signal: Pointer to the signal object
 258:.\source\rte/sc_buttons.h ****  * @return sc_buttons_data_t*: pointer to the current value of the application data buffer
 259:.\source\rte/sc_buttons.h ****  *
 260:.\source\rte/sc_buttons.h ****  **/
 261:.\source\rte/sc_buttons.h **** inline SC_BUTTONS_data_t* RTE_SC_BUTTONS_getPtr( SC_BUTTONS_t * const signal )
 262:.\source\rte/sc_buttons.h **** {               
 263:.\source\rte/sc_buttons.h ****    //Todo: Critical region cannot be protected using return values																						
 264:.\source\rte/sc_buttons.h ****    return &(signal->value);                                                                        
 265:.\source\rte/sc_buttons.h **** }
 266:.\source\rte/sc_buttons.h **** 
 267:.\source\rte/sc_buttons.h **** /**
 268:.\source\rte/sc_buttons.h ****  * Returns the current application value of the passed signal instance.
 269:.\source\rte/sc_buttons.h ****  *
 270:.\source\rte/sc_buttons.h ****  * @param  SC_BUTTONS_t * const signal: Pointer to the signal object
 271:.\source\rte/sc_buttons.h ****  * @return sc_buttons_data_t: current value of the application data buffer
 272:.\source\rte/sc_buttons.h ****  *
 273:.\source\rte/sc_buttons.h ****  **/
 274:.\source\rte/sc_buttons.h **** inline SC_BUTTONS_data_t RTE_SC_BUTTONS_get( const SC_BUTTONS_t * const signal )
 275:.\source\rte/sc_buttons.h **** {               
 276:.\source\rte/sc_buttons.h ****    //Todo: Critical region cannot be protected using return values																						
 277:.\source\rte/sc_buttons.h ****    return signal->value;                                                                           
 278:.\source\rte/sc_buttons.h **** }                                                                                                  
 279:.\source\rte/sc_buttons.h ****                                                                                                    
 280:.\source\rte/sc_buttons.h **** /**
 281:.\source\rte/sc_buttons.h ****  * Returns the current application value of the passed signal instance threadsafe.
 282:.\source\rte/sc_buttons.h ****  *
 283:.\source\rte/sc_buttons.h ****  * @param  SC_BUTTONS_t * const signal: Pointer to the signal object
 284:.\source\rte/sc_buttons.h ****  * @param  SC_BUTTONS_data_t* data: Pointer to the return data Pointer to the signal object
 285:.\source\rte/sc_buttons.h ****  * @return RC_SUCCESS
 286:.\source\rte/sc_buttons.h ****  *
 287:.\source\rte/sc_buttons.h ****  **/
 288:.\source\rte/sc_buttons.h **** inline RC_t RTE_SC_BUTTONS_getThreadSafe( const SC_BUTTONS_t * const signal, SC_BUTTONS_data_t * co
 289:.\source\rte/sc_buttons.h **** {    
 290:.\source\rte/sc_buttons.h ****    if (TRUE == signal->pSigCfg->resourceActive) GetResource(signal->pSigCfg->resource);
 291:.\source\rte/sc_buttons.h ****    *data = signal->value;
 292:.\source\rte/sc_buttons.h ****    if (TRUE == signal->pSigCfg->resourceActive) ReleaseResource(signal->pSigCfg->resource);        
 293:.\source\rte/sc_buttons.h **** 
 294:.\source\rte/sc_buttons.h ****    return RC_SUCCESS;                                                                   
 295:.\source\rte/sc_buttons.h ****    
 296:.\source\rte/sc_buttons.h **** }                                                                                                  
 297:.\source\rte/sc_buttons.h ****                                                                                                    
 298:.\source\rte/sc_buttons.h **** /**
 299:.\source\rte/sc_buttons.h ****  * Sets a new application value to the passed signal instance by passing the new value.
 300:.\source\rte/sc_buttons.h ****  * The corresponding driver raw value will be calculated immediately by using the default conversio
 301:.\source\rte/sc_buttons.h ****  * signal specific scaling function.
 302:.\source\rte/sc_buttons.h ****  * The signal age will be set to 0 and the new status will be 'RTE_SIGNALSTATUS_VALID'.
 303:.\source\rte/sc_buttons.h ****  *
 304:.\source\rte/sc_buttons.h ****  * @param  SC_BUTTONS_t * const signal: Pointer to the signal object
 305:.\source\rte/sc_buttons.h ****  * @param  sc_buttons_data_t const value: value for the application data buffer
 306:.\source\rte/sc_buttons.h ****  * @return RC_t: standard return code, currently only RC_SUCCESS
 307:.\source\rte/sc_buttons.h ****  *
 308:.\source\rte/sc_buttons.h ****  **/
 309:.\source\rte/sc_buttons.h **** inline RC_t RTE_SC_BUTTONS_set(SC_BUTTONS_t * const signal, const SC_BUTTONS_data_t value  )
 310:.\source\rte/sc_buttons.h **** {
 311:.\source\rte/sc_buttons.h **** 
 312:.\source\rte/sc_buttons.h ****    RC_t ret = RC_SUCCESS;
ARM GAS  C:\Users\zakis\AppData\Local\Temp\ccvN5P7b.s 			page 8


 313:.\source\rte/sc_buttons.h ****    size_t taskNum=0;
 314:.\source\rte/sc_buttons.h **** 
 315:.\source\rte/sc_buttons.h **** 
 316:.\source\rte/sc_buttons.h ****    if (TRUE == signal->pSigCfg->resourceActive) GetResource(signal->pSigCfg->resource);
 317:.\source\rte/sc_buttons.h ****    signal->value  = value;
 318:.\source\rte/sc_buttons.h ****    signal->age    = 0;
 319:.\source\rte/sc_buttons.h ****    signal->status = RTE_SIGNALSTATUS_VALID;
 320:.\source\rte/sc_buttons.h ****    if (TRUE == signal->pSigCfg->resourceActive) ReleaseResource(signal->pSigCfg->resource);
 321:.\source\rte/sc_buttons.h **** 
 322:.\source\rte/sc_buttons.h ****    //Pointer to the Taskarray, containing the tasks receiving the onUpdate events
 323:.\source\rte/sc_buttons.h ****    TaskTypeArray* pTaskArray = signal->pSigCfg->onUpdateTasks;
 324:.\source\rte/sc_buttons.h **** 
 325:.\source\rte/sc_buttons.h ****    if (0 != signal->pSigCfg->evOnUpdate && NULL != pTaskArray){
 326:.\source\rte/sc_buttons.h ****       for( taskNum=0 ; taskNum < signal->pSigCfg->onUpdateTaskCount ;taskNum++){
 327:.\source\rte/sc_buttons.h **** 		  
 328:.\source\rte/sc_buttons.h ****           TaskType task = (*pTaskArray)[taskNum];
 329:.\source\rte/sc_buttons.h **** 	      SetEvent( task, signal->pSigCfg->evOnUpdate);
 330:.\source\rte/sc_buttons.h ****       }
 331:.\source\rte/sc_buttons.h ****    }
 332:.\source\rte/sc_buttons.h **** 
 333:.\source\rte/sc_buttons.h ****    return ret;
 334:.\source\rte/sc_buttons.h **** }                                                                                                  
 335:.\source\rte/sc_buttons.h ****                                                                                                    
 336:.\source\rte/sc_buttons.h ****                                                                                                    
 337:.\source\rte/sc_buttons.h **** /**************************************************************************************************
 338:.\source\rte/sc_buttons.h **** /* Call functions to the connected drivers																			*/
 339:.\source\rte/sc_buttons.h **** /**************************************************************************************************
 340:.\source\rte/sc_buttons.h **** 
 341:.\source\rte/sc_buttons.h ****                                                                                                    
 342:.\source\rte/sc_buttons.h **** /**
 343:.\source\rte/sc_buttons.h ****  *  Calls the connected driver interface to get a new value.
 344:.\source\rte/sc_buttons.h ****  *
 345:.\source\rte/sc_buttons.h ****  * @param SC_BUTTONS_t * const signal: Pointer to the signal object
 346:.\source\rte/sc_buttons.h ****  * @return  RC_t: Return value of the driver call
 347:.\source\rte/sc_buttons.h ****  *
 348:.\source\rte/sc_buttons.h ****  */
 349:.\source\rte/sc_buttons.h **** inline RC_t RTE_SC_BUTTONS_pullPort( SC_BUTTONS_t * const signal )
 350:.\source\rte/sc_buttons.h **** {                                                                                                  
 351:.\source\rte/sc_buttons.h ****    RC_t ret = RC_SUCCESS;
 352:.\source\rte/sc_buttons.h **** 
 353:.\source\rte/sc_buttons.h ****                                                                                                    
 354:.\source\rte/sc_buttons.h ****    if ( NULL != signal->pSigCfg->inDriver )
  44              		.loc 2 354 0
  45 0004 A04B     		ldr	r3, .L43
  46 0006 9A68     		ldr	r2, [r3, #8]
  47 0008 1368     		ldr	r3, [r2]
  48 000a 002B     		cmp	r3, #0
  49 000c 56D0     		beq	.L2
  50              	.LBB39:
 355:.\source\rte/sc_buttons.h ****    {
 356:.\source\rte/sc_buttons.h **** 	  SC_BUTTONS_data_t value = signal->value;
  51              		.loc 2 356 0
  52 000e 9E4B     		ldr	r3, .L43
  53 0010 1B68     		ldr	r3, [r3]
  54 0012 ADF80830 		strh	r3, [sp, #8]	@ movhi
  55 0016 1B0C     		lsrs	r3, r3, #16
  56 0018 8DF80A30 		strb	r3, [sp, #10]
ARM GAS  C:\Users\zakis\AppData\Local\Temp\ccvN5P7b.s 			page 9


 357:.\source\rte/sc_buttons.h ****       ret = signal->pSigCfg->inDriver(&value);
  57              		.loc 2 357 0
  58 001c 1368     		ldr	r3, [r2]
  59 001e 02A8     		add	r0, sp, #8
  60              	.LVL2:
  61 0020 9847     		blx	r3
  62              	.LVL3:
 358:.\source\rte/sc_buttons.h ****                                                                                                    
 359:.\source\rte/sc_buttons.h ****       if ( ret == RC_SUCCESS )                                                                     
  63              		.loc 2 359 0
  64 0022 0028     		cmp	r0, #0
  65 0024 34D1     		bne	.L3
  66              	.LVL4:
  67 0026 029B     		ldr	r3, [sp, #8]
  68 0028 ADF80430 		strh	r3, [sp, #4]	@ movhi
  69 002c 1B0C     		lsrs	r3, r3, #16
  70 002e 8DF80630 		strb	r3, [sp, #6]
  71              	.LVL5:
  72              	.LBB40:
  73              	.LBB41:
 316:.\source\rte/sc_buttons.h ****    signal->value  = value;
  74              		.loc 2 316 0
  75 0032 954B     		ldr	r3, .L43
  76 0034 9B68     		ldr	r3, [r3, #8]
  77 0036 93F82020 		ldrb	r2, [r3, #32]	@ zero_extendqisi2
  78 003a 012A     		cmp	r2, #1
  79 003c 02D1     		bne	.L4
  80 003e 586A     		ldr	r0, [r3, #36]
  81              	.LVL6:
  82 0040 FFF7FEFF 		bl	EE_oo_GetResource
  83              	.LVL7:
  84              	.L4:
 317:.\source\rte/sc_buttons.h ****    signal->age    = 0;
  85              		.loc 2 317 0
  86 0044 904B     		ldr	r3, .L43
  87 0046 019A     		ldr	r2, [sp, #4]
  88 0048 1A80     		strh	r2, [r3]	@ movhi
  89 004a 120C     		lsrs	r2, r2, #16
  90 004c 9A70     		strb	r2, [r3, #2]
 318:.\source\rte/sc_buttons.h ****    signal->status = RTE_SIGNALSTATUS_VALID;
  91              		.loc 2 318 0
  92 004e 0022     		movs	r2, #0
  93 0050 5A60     		str	r2, [r3, #4]
 319:.\source\rte/sc_buttons.h ****    if (TRUE == signal->pSigCfg->resourceActive) ReleaseResource(signal->pSigCfg->resource);
  94              		.loc 2 319 0
  95 0052 0222     		movs	r2, #2
  96 0054 DA70     		strb	r2, [r3, #3]
 320:.\source\rte/sc_buttons.h **** 
  97              		.loc 2 320 0
  98 0056 9B68     		ldr	r3, [r3, #8]
  99 0058 93F82020 		ldrb	r2, [r3, #32]	@ zero_extendqisi2
 100 005c 012A     		cmp	r2, #1
 101 005e 02D1     		bne	.L5
 102 0060 586A     		ldr	r0, [r3, #36]
 103 0062 FFF7FEFF 		bl	EE_oo_ReleaseResource
 104              	.LVL8:
 105              	.L5:
ARM GAS  C:\Users\zakis\AppData\Local\Temp\ccvN5P7b.s 			page 10


 323:.\source\rte/sc_buttons.h **** 
 106              		.loc 2 323 0
 107 0066 884B     		ldr	r3, .L43
 108 0068 9B68     		ldr	r3, [r3, #8]
 109 006a 5D69     		ldr	r5, [r3, #20]
 110              	.LVL9:
 325:.\source\rte/sc_buttons.h ****       for( taskNum=0 ; taskNum < signal->pSigCfg->onUpdateTaskCount ;taskNum++){
 111              		.loc 2 325 0
 112 006c 9B68     		ldr	r3, [r3, #8]
 113 006e 2BB3     		cbz	r3, .L2
 114 0070 3DB9     		cbnz	r5, .L36
 115 0072 23E0     		b	.L2
 116              	.LVL10:
 117              	.L8:
 118              	.LBB42:
 329:.\source\rte/sc_buttons.h ****       }
 119              		.loc 2 329 0
 120 0074 9968     		ldr	r1, [r3, #8]
 121 0076 55F82400 		ldr	r0, [r5, r4, lsl #2]
 122 007a FFF7FEFF 		bl	EE_oo_SetEvent
 123              	.LVL11:
 124              	.LBE42:
 326:.\source\rte/sc_buttons.h **** 		  
 125              		.loc 2 326 0
 126 007e 0134     		adds	r4, r4, #1
 127              	.LVL12:
 128 0080 00E0     		b	.L7
 129              	.LVL13:
 130              	.L36:
 325:.\source\rte/sc_buttons.h ****       for( taskNum=0 ; taskNum < signal->pSigCfg->onUpdateTaskCount ;taskNum++){
 131              		.loc 2 325 0
 132 0082 0024     		movs	r4, #0
 133              	.LVL14:
 134              	.L7:
 326:.\source\rte/sc_buttons.h **** 		  
 135              		.loc 2 326 0
 136 0084 804B     		ldr	r3, .L43
 137 0086 9B68     		ldr	r3, [r3, #8]
 138 0088 1A69     		ldr	r2, [r3, #16]
 139 008a 9442     		cmp	r4, r2
 140 008c F2D3     		bcc	.L8
 141 008e 15E0     		b	.L2
 142              	.LVL15:
 143              	.L3:
 144              	.LBE41:
 145              	.LBE40:
 146              	.LBB43:
 147              	.LBB44:
 200:.\source\rte/sc_buttons.h ****    size_t taskNum=0;
 148              		.loc 2 200 0
 149 0090 7D4B     		ldr	r3, .L43
 150 0092 0322     		movs	r2, #3
 151 0094 DA70     		strb	r2, [r3, #3]
 152              	.LVL16:
 153              	.LBB45:
 207:.\source\rte/sc_buttons.h **** 
 154              		.loc 2 207 0
ARM GAS  C:\Users\zakis\AppData\Local\Temp\ccvN5P7b.s 			page 11


 155 0096 9B68     		ldr	r3, [r3, #8]
 156 0098 DD69     		ldr	r5, [r3, #28]
 157              	.LVL17:
 209:.\source\rte/sc_buttons.h **** 			for( taskNum=0 ; taskNum < signal->pSigCfg->onErrorTaskCount ;taskNum++){
 158              		.loc 2 209 0
 159 009a DB68     		ldr	r3, [r3, #12]
 160 009c 73B1     		cbz	r3, .L2
 161 009e 3DB9     		cbnz	r5, .L37
 162 00a0 0CE0     		b	.L2
 163              	.LVL18:
 164              	.L10:
 165              	.LBB46:
 212:.\source\rte/sc_buttons.h **** 			}
 166              		.loc 2 212 0
 167 00a2 D968     		ldr	r1, [r3, #12]
 168 00a4 55F82400 		ldr	r0, [r5, r4, lsl #2]
 169 00a8 FFF7FEFF 		bl	EE_oo_SetEvent
 170              	.LVL19:
 171              	.LBE46:
 210:.\source\rte/sc_buttons.h **** 				TaskType task = (*pTaskArray)[taskNum];
 172              		.loc 2 210 0
 173 00ac 0134     		adds	r4, r4, #1
 174              	.LVL20:
 175 00ae 00E0     		b	.L9
 176              	.LVL21:
 177              	.L37:
 209:.\source\rte/sc_buttons.h **** 			for( taskNum=0 ; taskNum < signal->pSigCfg->onErrorTaskCount ;taskNum++){
 178              		.loc 2 209 0
 179 00b0 0024     		movs	r4, #0
 180              	.LVL22:
 181              	.L9:
 210:.\source\rte/sc_buttons.h **** 				TaskType task = (*pTaskArray)[taskNum];
 182              		.loc 2 210 0
 183 00b2 754B     		ldr	r3, .L43
 184 00b4 9B68     		ldr	r3, [r3, #8]
 185 00b6 9A69     		ldr	r2, [r3, #24]
 186 00b8 9442     		cmp	r4, r2
 187 00ba F2D3     		bcc	.L10
 188              	.LVL23:
 189              	.L2:
 190              	.LBE45:
 191              	.LBE44:
 192              	.LBE43:
 193              	.LBE39:
 194              	.LBE38:
 195              	.LBE37:
 196              	.LBB47:
 197              	.LBB48:
 290:.\source\rte/sc_buttons.h ****    *data = signal->value;
 198              		.loc 2 290 0
 199 00bc 724B     		ldr	r3, .L43
 200 00be 9B68     		ldr	r3, [r3, #8]
 201 00c0 93F82020 		ldrb	r2, [r3, #32]	@ zero_extendqisi2
 202 00c4 012A     		cmp	r2, #1
 203 00c6 02D1     		bne	.L11
 204 00c8 586A     		ldr	r0, [r3, #36]
 205 00ca FFF7FEFF 		bl	EE_oo_GetResource
ARM GAS  C:\Users\zakis\AppData\Local\Temp\ccvN5P7b.s 			page 12


 206              	.LVL24:
 207              	.L11:
 291:.\source\rte/sc_buttons.h ****    if (TRUE == signal->pSigCfg->resourceActive) ReleaseResource(signal->pSigCfg->resource);        
 208              		.loc 2 291 0
 209 00ce 6E4A     		ldr	r2, .L43
 210 00d0 1368     		ldr	r3, [r2]
 211 00d2 ADF80C30 		strh	r3, [sp, #12]	@ movhi
 212 00d6 1B0C     		lsrs	r3, r3, #16
 213 00d8 8DF80E30 		strb	r3, [sp, #14]
 292:.\source\rte/sc_buttons.h **** 
 214              		.loc 2 292 0
 215 00dc 9368     		ldr	r3, [r2, #8]
 216 00de 93F82020 		ldrb	r2, [r3, #32]	@ zero_extendqisi2
 217 00e2 012A     		cmp	r2, #1
 218 00e4 02D1     		bne	.L12
 219 00e6 586A     		ldr	r0, [r3, #36]
 220 00e8 FFF7FEFF 		bl	EE_oo_ReleaseResource
 221              	.LVL25:
 222              	.L12:
 223              	.LBE48:
 224              	.LBE47:
  45:source\asw/swc_input.c **** 	
  46:source\asw/swc_input.c **** 	/* USER CODE START INPUT_readButtons_run */
  47:source\asw/swc_input.c ****     
  48:source\asw/swc_input.c **** //    UART_Logs_PutString("INPUT_readButtons_run\n");
  49:source\asw/swc_input.c ****     
  50:source\asw/swc_input.c ****     RTE_SC_BUTTONS_pullPort(&SO_BUTTONS_signal);
  51:source\asw/swc_input.c ****     
  52:source\asw/swc_input.c ****     SC_BUTTONS_data_t input = SC_BUTTONS_INIT_DATA;
  53:source\asw/swc_input.c ****     RTE_SC_BUTTONS_getThreadSafe(&SO_BUTTONS_signal, &input);
  54:source\asw/swc_input.c ****     
  55:source\asw/swc_input.c ****     SC_EVENTS_data_t event = SC_EVENTS_INIT_DATA;
  56:source\asw/swc_input.c ****     
  57:source\asw/swc_input.c ****     
  58:source\asw/swc_input.c ****     if (input.m_buttonLeftPressed == TRUE){
 225              		.loc 1 58 0
 226 00ec 9DF80D30 		ldrb	r3, [sp, #13]	@ zero_extendqisi2
 227 00f0 012B     		cmp	r3, #1
 228 00f2 31D1     		bne	.L13
 229              	.LVL26:
 230              	.LBB49:
 231              	.LBB50:
 232              		.file 3 ".\\source\\rte/sc_events.h"
   1:.\source\rte/sc_events.h **** 
   2:.\source\rte/sc_events.h **** 
   3:.\source\rte/sc_events.h **** /**
   4:.\source\rte/sc_events.h ****  *  file    SC_EVENTS_signal.h
   5:.\source\rte/sc_events.h ****  *
   6:.\source\rte/sc_events.h ****  *  brief   signal base class for signal sc_events
   7:.\source\rte/sc_events.h ****  *
   8:.\source\rte/sc_events.h ****  *  author  Autogenerated, Peter Fromm       <peter.fromm@h-da.de>
   9:.\source\rte/sc_events.h ****  *
  10:.\source\rte/sc_events.h ****  * description: Signalclass
  11:.\source\rte/sc_events.h ****  * name: sc_events
  12:.\source\rte/sc_events.h ****  * shortname: events
  13:.\source\rte/sc_events.h ****  *
  14:.\source\rte/sc_events.h ****  */
ARM GAS  C:\Users\zakis\AppData\Local\Temp\ccvN5P7b.s 			page 13


  15:.\source\rte/sc_events.h **** 
  16:.\source\rte/sc_events.h **** 
  17:.\source\rte/sc_events.h **** 
  18:.\source\rte/sc_events.h **** #ifndef SC_EVENTS_SIGNAL_H_INCLUDED
  19:.\source\rte/sc_events.h **** #define SC_EVENTS_SIGNAL_H_INCLUDED
  20:.\source\rte/sc_events.h **** 
  21:.\source\rte/sc_events.h **** /*================================================[ public includes  ]=============================
  22:.\source\rte/sc_events.h **** #include "global.h"
  23:.\source\rte/sc_events.h **** #include "project.h"
  24:.\source\rte/sc_events.h **** #include "rte.h"
  25:.\source\rte/sc_events.h **** #include "rte_types.h"
  26:.\source\rte/sc_events.h **** 
  27:.\source\rte/sc_events.h **** #include "sc_events_type.h"
  28:.\source\rte/sc_events.h **** 
  29:.\source\rte/sc_events.h **** 
  30:.\source\rte/sc_events.h **** /**************************************************************************************************
  31:.\source\rte/sc_events.h **** /* The driver API block																						*/
  32:.\source\rte/sc_events.h **** /**************************************************************************************************
  33:.\source\rte/sc_events.h ****                                                                                                    
  34:.\source\rte/sc_events.h **** /**
  35:.\source\rte/sc_events.h ****  *  Definition of function types for driver interfaces.
  36:.\source\rte/sc_events.h ****  *  I-Port
  37:.\source\rte/sc_events.h ****  */
  38:.\source\rte/sc_events.h **** typedef RC_t (*SC_EVENTS_driverIn_t)(SC_EVENTS_data_t * const);
  39:.\source\rte/sc_events.h **** 
  40:.\source\rte/sc_events.h **** /**
  41:.\source\rte/sc_events.h ****  *  Definition of function types for driver interfaces.
  42:.\source\rte/sc_events.h ****  *  O-Port
  43:.\source\rte/sc_events.h ****  */
  44:.\source\rte/sc_events.h **** typedef RC_t (*SC_EVENTS_driverOut_t)( const SC_EVENTS_data_t * const);
  45:.\source\rte/sc_events.h **** 
  46:.\source\rte/sc_events.h **** 
  47:.\source\rte/sc_events.h **** /**************************************************************************************************
  48:.\source\rte/sc_events.h **** /* The signal configuration API block																				*/
  49:.\source\rte/sc_events.h **** /**************************************************************************************************
  50:.\source\rte/sc_events.h **** 
  51:.\source\rte/sc_events.h **** /**
  52:.\source\rte/sc_events.h ****  * Instances of the struct SC_EVENTS_cfg_t represent the signal object configuration.
  53:.\source\rte/sc_events.h ****  */
  54:.\source\rte/sc_events.h **** struct SC_EVENTS_cfg_s
  55:.\source\rte/sc_events.h **** {
  56:.\source\rte/sc_events.h ****     /**
  57:.\source\rte/sc_events.h ****      * Function pointer to the input driver
  58:.\source\rte/sc_events.h ****      */
  59:.\source\rte/sc_events.h ****     SC_EVENTS_driverIn_t const inDriver;
  60:.\source\rte/sc_events.h **** 
  61:.\source\rte/sc_events.h ****     /**
  62:.\source\rte/sc_events.h ****      * Function pointer to the output driver table
  63:.\source\rte/sc_events.h ****      */
  64:.\source\rte/sc_events.h ****    SC_EVENTS_driverOut_t const outDriver;
  65:.\source\rte/sc_events.h ****    
  66:.\source\rte/sc_events.h ****     /**
  67:.\source\rte/sc_events.h ****      * Event onUpdate
  68:.\source\rte/sc_events.h ****      */
  69:.\source\rte/sc_events.h ****     EventMaskType const evOnUpdate;
  70:.\source\rte/sc_events.h ****     
  71:.\source\rte/sc_events.h ****     
ARM GAS  C:\Users\zakis\AppData\Local\Temp\ccvN5P7b.s 			page 14


  72:.\source\rte/sc_events.h ****     /**
  73:.\source\rte/sc_events.h ****      * Event onError
  74:.\source\rte/sc_events.h ****      */
  75:.\source\rte/sc_events.h ****     EventMaskType const evOnError;
  76:.\source\rte/sc_events.h ****     
  77:.\source\rte/sc_events.h ****     /**
  78:.\source\rte/sc_events.h ****      * Task Count onUpdate
  79:.\source\rte/sc_events.h ****      */
  80:.\source\rte/sc_events.h ****     size_t const onUpdateTaskCount;
  81:.\source\rte/sc_events.h **** 
  82:.\source\rte/sc_events.h ****     /**
  83:.\source\rte/sc_events.h ****      * Task List onUpdate
  84:.\source\rte/sc_events.h ****      */
  85:.\source\rte/sc_events.h ****     TaskTypeArray* const onUpdateTasks;
  86:.\source\rte/sc_events.h ****     
  87:.\source\rte/sc_events.h ****     /**
  88:.\source\rte/sc_events.h ****      * Task Count onError
  89:.\source\rte/sc_events.h ****      */
  90:.\source\rte/sc_events.h ****     size_t const onErrorTaskCount;
  91:.\source\rte/sc_events.h **** 
  92:.\source\rte/sc_events.h ****     /**
  93:.\source\rte/sc_events.h ****      * Task List onError
  94:.\source\rte/sc_events.h ****      */
  95:.\source\rte/sc_events.h ****     TaskTypeArray* const onErrorTasks;
  96:.\source\rte/sc_events.h **** 	
  97:.\source\rte/sc_events.h **** 	
  98:.\source\rte/sc_events.h **** 	/**
  99:.\source\rte/sc_events.h **** 	 * Ressourse is active? We need an additional boolean as a ressource value 0 is valid.
 100:.\source\rte/sc_events.h **** 	 */
 101:.\source\rte/sc_events.h **** 	 boolean_t const resourceActive;
 102:.\source\rte/sc_events.h **** 	 
 103:.\source\rte/sc_events.h **** 	/**
 104:.\source\rte/sc_events.h **** 	 * Ressourse 
 105:.\source\rte/sc_events.h **** 	 */
 106:.\source\rte/sc_events.h **** 	 ResourceType const resource;
 107:.\source\rte/sc_events.h **** 
 108:.\source\rte/sc_events.h **** };                                                                                                 
 109:.\source\rte/sc_events.h **** typedef const struct SC_EVENTS_cfg_s SC_EVENTS_cfg_t;
 110:.\source\rte/sc_events.h ****                               
 111:.\source\rte/sc_events.h **** /**************************************************************************************************
 112:.\source\rte/sc_events.h **** /* The data interface block																							*/
 113:.\source\rte/sc_events.h **** /**************************************************************************************************
 114:.\source\rte/sc_events.h **** 
 115:.\source\rte/sc_events.h ****                                                                                                    
 116:.\source\rte/sc_events.h **** 							  
 117:.\source\rte/sc_events.h **** /**
 118:.\source\rte/sc_events.h ****  * Instances of the struct SC_EVENTS_t represent the signal objects.
 119:.\source\rte/sc_events.h ****  * A signal object contains the current application value 'value' as well as relevant meta data.
 120:.\source\rte/sc_events.h ****  */
 121:.\source\rte/sc_events.h **** struct SC_EVENTS_s
 122:.\source\rte/sc_events.h **** {                                                                                                  
 123:.\source\rte/sc_events.h **** 
 124:.\source\rte/sc_events.h **** 	/**
 125:.\source\rte/sc_events.h **** 	 * Data buffer for the application value
 126:.\source\rte/sc_events.h **** 	 */
 127:.\source\rte/sc_events.h ****     SC_EVENTS_data_t value;
 128:.\source\rte/sc_events.h **** 
ARM GAS  C:\Users\zakis\AppData\Local\Temp\ccvN5P7b.s 			page 15


 129:.\source\rte/sc_events.h ****     /**
 130:.\source\rte/sc_events.h ****      * Current signal status
 131:.\source\rte/sc_events.h ****      */
 132:.\source\rte/sc_events.h ****     RTE_signalStatus_t status;
 133:.\source\rte/sc_events.h **** 
 134:.\source\rte/sc_events.h ****     /**
 135:.\source\rte/sc_events.h ****      * Current age of the signal (in calling cycles)
 136:.\source\rte/sc_events.h ****      */
 137:.\source\rte/sc_events.h ****     uint32_t age;
 138:.\source\rte/sc_events.h **** 
 139:.\source\rte/sc_events.h ****     /**
 140:.\source\rte/sc_events.h ****      * Pointer to the signal configuration
 141:.\source\rte/sc_events.h ****      */
 142:.\source\rte/sc_events.h **** 	const SC_EVENTS_cfg_t * const    pSigCfg;
 143:.\source\rte/sc_events.h **** 
 144:.\source\rte/sc_events.h **** };                                                                                                 
 145:.\source\rte/sc_events.h **** typedef struct SC_EVENTS_s SC_EVENTS_t;
 146:.\source\rte/sc_events.h **** 
 147:.\source\rte/sc_events.h **** /**************************************************************************************************
 148:.\source\rte/sc_events.h **** /* Signal initialisation   																							*/
 149:.\source\rte/sc_events.h **** /**************************************************************************************************
 150:.\source\rte/sc_events.h **** 
 151:.\source\rte/sc_events.h **** /**
 152:.\source\rte/sc_events.h ****  * Initializes a signal instance with a passed init value.
 153:.\source\rte/sc_events.h ****  * Depending on the configured conversion or scaling function the raw_value will be calculated.
 154:.\source\rte/sc_events.h ****  * Signal status will change from RTE_SIGNALSTATUS_STARTUP to RTE_SIGNALSTATUS_INITIALIZED.
 155:.\source\rte/sc_events.h ****  *
 156:.\source\rte/sc_events.h ****  * @param  SC_EVENTS_t * const signal: Pointer to the signal object which will be initialised
 157:.\source\rte/sc_events.h ****  * @return RC_t: standard return code, currently only RC_SUCCESS
 158:.\source\rte/sc_events.h ****  *
 159:.\source\rte/sc_events.h ****  **/
 160:.\source\rte/sc_events.h **** inline RC_t RTE_SC_EVENTS_init( SC_EVENTS_t * const signal )
 161:.\source\rte/sc_events.h **** {                                                                                                  
 162:.\source\rte/sc_events.h **** 
 163:.\source\rte/sc_events.h ****    RC_t ret = RC_SUCCESS;
 164:.\source\rte/sc_events.h **** 
 165:.\source\rte/sc_events.h ****    //Set value and raw value
 166:.\source\rte/sc_events.h ****    signal->value  = SC_EVENTS_INIT_DATA;
 167:.\source\rte/sc_events.h ****    signal->age    = 0;
 168:.\source\rte/sc_events.h ****    signal->status = RTE_SIGNALSTATUS_INITIALIZED;
 169:.\source\rte/sc_events.h **** 
 170:.\source\rte/sc_events.h ****    return ret;
 171:.\source\rte/sc_events.h **** }
 172:.\source\rte/sc_events.h **** 
 173:.\source\rte/sc_events.h **** /**************************************************************************************************
 174:.\source\rte/sc_events.h **** /* Status and timeout control																						*/
 175:.\source\rte/sc_events.h **** /**************************************************************************************************
 176:.\source\rte/sc_events.h **** 
 177:.\source\rte/sc_events.h **** /**
 178:.\source\rte/sc_events.h ****  *  Returns the current signal status of the passed signal instance.
 179:.\source\rte/sc_events.h ****  *
 180:.\source\rte/sc_events.h ****  * @param  SC_EVENTS_t * const signal: Pointer to the signal object
 181:.\source\rte/sc_events.h ****  * @return  sig_status_t: The current signal status
 182:.\source\rte/sc_events.h ****  *
 183:.\source\rte/sc_events.h ****  **/
 184:.\source\rte/sc_events.h **** inline RTE_signalStatus_t RTE_SC_EVENTS_getStatus( const SC_EVENTS_t * const signal )
 185:.\source\rte/sc_events.h **** {
ARM GAS  C:\Users\zakis\AppData\Local\Temp\ccvN5P7b.s 			page 16


 186:.\source\rte/sc_events.h ****    return signal->status;
 187:.\source\rte/sc_events.h **** }
 188:.\source\rte/sc_events.h **** 
 189:.\source\rte/sc_events.h **** 
 190:.\source\rte/sc_events.h **** /**
 191:.\source\rte/sc_events.h ****  *  Sets a new signal status of the passed signal instance by passing the new status.
 192:.\source\rte/sc_events.h ****  *
 193:.\source\rte/sc_events.h ****  * @param  SC_EVENTS_t * const signal: Pointer to the signal object
 194:.\source\rte/sc_events.h ****  * @param  const sig_status_t status: New signal status
 195:.\source\rte/sc_events.h ****  * @return RC_t: standard return code, currently only RC_SUCCESS
 196:.\source\rte/sc_events.h ****  *
 197:.\source\rte/sc_events.h ****  */
 198:.\source\rte/sc_events.h **** inline RC_t RTE_SC_EVENTS_setStatus( SC_EVENTS_t * const signal, const RTE_signalStatus_t status )
 199:.\source\rte/sc_events.h **** {
 200:.\source\rte/sc_events.h ****    signal->status = status;
 201:.\source\rte/sc_events.h ****    size_t taskNum=0;
 202:.\source\rte/sc_events.h ****    
 203:.\source\rte/sc_events.h ****    //Fire error events in case of invalid state
 204:.\source\rte/sc_events.h ****    if (signal->status == RTE_SIGNALSTATUS_INVALID)
 205:.\source\rte/sc_events.h ****    {
 206:.\source\rte/sc_events.h **** 	    //Pointer to the Taskarray, containing the tasks receiving the onUpdate events
 207:.\source\rte/sc_events.h **** 		TaskTypeArray* pTaskArray = signal->pSigCfg->onErrorTasks;
 208:.\source\rte/sc_events.h **** 
 209:.\source\rte/sc_events.h **** 		if (0 != signal->pSigCfg->evOnError && NULL != pTaskArray){
 210:.\source\rte/sc_events.h **** 			for( taskNum=0 ; taskNum < signal->pSigCfg->onErrorTaskCount ;taskNum++){
 211:.\source\rte/sc_events.h **** 				TaskType task = (*pTaskArray)[taskNum];
 212:.\source\rte/sc_events.h **** 				SetEvent( task, signal->pSigCfg->evOnError);
 213:.\source\rte/sc_events.h **** 			}
 214:.\source\rte/sc_events.h **** 		}
 215:.\source\rte/sc_events.h ****    }
 216:.\source\rte/sc_events.h ****    
 217:.\source\rte/sc_events.h ****    return RC_SUCCESS;
 218:.\source\rte/sc_events.h **** }
 219:.\source\rte/sc_events.h **** 
 220:.\source\rte/sc_events.h **** 
 221:.\source\rte/sc_events.h **** /**
 222:.\source\rte/sc_events.h ****  * Returns the count of refreshing trials (refresh, set or set_raw) that failed.
 223:.\source\rte/sc_events.h ****  * Prerquisite: The signal is refreshed cyclically
 224:.\source\rte/sc_events.h ****  *
 225:.\source\rte/sc_events.h ****  * @param  SC_EVENTS_t * const signal: Pointer to the signal object
 226:.\source\rte/sc_events.h ****  * @return uint32_t: Number of cycles since the signal has been updated for the last time
 227:.\source\rte/sc_events.h ****  */
 228:.\source\rte/sc_events.h **** inline uint32_t RTE_SC_EVENTS_getAge( const SC_EVENTS_t * const signal )
 229:.\source\rte/sc_events.h **** {
 230:.\source\rte/sc_events.h ****    return signal->age;
 231:.\source\rte/sc_events.h **** }
 232:.\source\rte/sc_events.h **** 
 233:.\source\rte/sc_events.h **** /**
 234:.\source\rte/sc_events.h ****  * Should be called by application or driver if no new value can be provided.
 235:.\source\rte/sc_events.h ****  * @param  SC_EVENTS_t * const signal: Pointer to the signal object
 236:.\source\rte/sc_events.h ****  * @param uint32_t increment: incrementvalue, typically in [ms]
 237:.\source\rte/sc_events.h ****  * @return void
 238:.\source\rte/sc_events.h ****  */
 239:.\source\rte/sc_events.h **** inline void RTE_SC_EVENTS_incAge(  SC_EVENTS_t * const signal , uint32_t increment)
 240:.\source\rte/sc_events.h **** {
 241:.\source\rte/sc_events.h **** 	   //Hack....
 242:.\source\rte/sc_events.h **** 	   if ( 0xFFFF0000 > (signal->age + increment) )
ARM GAS  C:\Users\zakis\AppData\Local\Temp\ccvN5P7b.s 			page 17


 243:.\source\rte/sc_events.h **** 	   {
 244:.\source\rte/sc_events.h **** 	      signal->age += increment;
 245:.\source\rte/sc_events.h **** 	   }
 246:.\source\rte/sc_events.h **** }
 247:.\source\rte/sc_events.h **** 
 248:.\source\rte/sc_events.h **** 
 249:.\source\rte/sc_events.h **** /**************************************************************************************************
 250:.\source\rte/sc_events.h **** /* Application Data read/write Interface																			*/
 251:.\source\rte/sc_events.h **** /**************************************************************************************************
 252:.\source\rte/sc_events.h **** 
 253:.\source\rte/sc_events.h **** /**
 254:.\source\rte/sc_events.h ****  * Returns the current application value as pointer to the signal payload.
 255:.\source\rte/sc_events.h ****  * Careful: This is not threadsafe!!!
 256:.\source\rte/sc_events.h ****  *
 257:.\source\rte/sc_events.h ****  * @param  SC_EVENTS_t * const signal: Pointer to the signal object
 258:.\source\rte/sc_events.h ****  * @return sc_events_data_t*: pointer to the current value of the application data buffer
 259:.\source\rte/sc_events.h ****  *
 260:.\source\rte/sc_events.h ****  **/
 261:.\source\rte/sc_events.h **** inline SC_EVENTS_data_t* RTE_SC_EVENTS_getPtr( SC_EVENTS_t * const signal )
 262:.\source\rte/sc_events.h **** {               
 263:.\source\rte/sc_events.h ****    //Todo: Critical region cannot be protected using return values																						
 264:.\source\rte/sc_events.h ****    return &(signal->value);                                                                        
 265:.\source\rte/sc_events.h **** }
 266:.\source\rte/sc_events.h **** 
 267:.\source\rte/sc_events.h **** /**
 268:.\source\rte/sc_events.h ****  * Returns the current application value of the passed signal instance.
 269:.\source\rte/sc_events.h ****  *
 270:.\source\rte/sc_events.h ****  * @param  SC_EVENTS_t * const signal: Pointer to the signal object
 271:.\source\rte/sc_events.h ****  * @return sc_events_data_t: current value of the application data buffer
 272:.\source\rte/sc_events.h ****  *
 273:.\source\rte/sc_events.h ****  **/
 274:.\source\rte/sc_events.h **** inline SC_EVENTS_data_t RTE_SC_EVENTS_get( const SC_EVENTS_t * const signal )
 275:.\source\rte/sc_events.h **** {               
 276:.\source\rte/sc_events.h ****    //Todo: Critical region cannot be protected using return values																						
 277:.\source\rte/sc_events.h ****    return signal->value;                                                                           
 278:.\source\rte/sc_events.h **** }                                                                                                  
 279:.\source\rte/sc_events.h ****                                                                                                    
 280:.\source\rte/sc_events.h **** /**
 281:.\source\rte/sc_events.h ****  * Returns the current application value of the passed signal instance threadsafe.
 282:.\source\rte/sc_events.h ****  *
 283:.\source\rte/sc_events.h ****  * @param  SC_EVENTS_t * const signal: Pointer to the signal object
 284:.\source\rte/sc_events.h ****  * @param  SC_EVENTS_data_t* data: Pointer to the return data Pointer to the signal object
 285:.\source\rte/sc_events.h ****  * @return RC_SUCCESS
 286:.\source\rte/sc_events.h ****  *
 287:.\source\rte/sc_events.h ****  **/
 288:.\source\rte/sc_events.h **** inline RC_t RTE_SC_EVENTS_getThreadSafe( const SC_EVENTS_t * const signal, SC_EVENTS_data_t * const
 289:.\source\rte/sc_events.h **** {    
 290:.\source\rte/sc_events.h ****    if (TRUE == signal->pSigCfg->resourceActive) GetResource(signal->pSigCfg->resource);
 291:.\source\rte/sc_events.h ****    *data = signal->value;
 292:.\source\rte/sc_events.h ****    if (TRUE == signal->pSigCfg->resourceActive) ReleaseResource(signal->pSigCfg->resource);        
 293:.\source\rte/sc_events.h **** 
 294:.\source\rte/sc_events.h ****    return RC_SUCCESS;                                                                   
 295:.\source\rte/sc_events.h ****    
 296:.\source\rte/sc_events.h **** }                                                                                                  
 297:.\source\rte/sc_events.h ****                                                                                                    
 298:.\source\rte/sc_events.h **** /**
 299:.\source\rte/sc_events.h ****  * Sets a new application value to the passed signal instance by passing the new value.
ARM GAS  C:\Users\zakis\AppData\Local\Temp\ccvN5P7b.s 			page 18


 300:.\source\rte/sc_events.h ****  * The corresponding driver raw value will be calculated immediately by using the default conversio
 301:.\source\rte/sc_events.h ****  * signal specific scaling function.
 302:.\source\rte/sc_events.h ****  * The signal age will be set to 0 and the new status will be 'RTE_SIGNALSTATUS_VALID'.
 303:.\source\rte/sc_events.h ****  *
 304:.\source\rte/sc_events.h ****  * @param  SC_EVENTS_t * const signal: Pointer to the signal object
 305:.\source\rte/sc_events.h ****  * @param  sc_events_data_t const value: value for the application data buffer
 306:.\source\rte/sc_events.h ****  * @return RC_t: standard return code, currently only RC_SUCCESS
 307:.\source\rte/sc_events.h ****  *
 308:.\source\rte/sc_events.h ****  **/
 309:.\source\rte/sc_events.h **** inline RC_t RTE_SC_EVENTS_set(SC_EVENTS_t * const signal, const SC_EVENTS_data_t value  )
 310:.\source\rte/sc_events.h **** {
 311:.\source\rte/sc_events.h **** 
 312:.\source\rte/sc_events.h ****    RC_t ret = RC_SUCCESS;
 313:.\source\rte/sc_events.h ****    size_t taskNum=0;
 314:.\source\rte/sc_events.h **** 
 315:.\source\rte/sc_events.h **** 
 316:.\source\rte/sc_events.h ****    if (TRUE == signal->pSigCfg->resourceActive) GetResource(signal->pSigCfg->resource);
 233              		.loc 3 316 0
 234 00f4 654B     		ldr	r3, .L43+4
 235 00f6 9B68     		ldr	r3, [r3, #8]
 236 00f8 93F82020 		ldrb	r2, [r3, #32]	@ zero_extendqisi2
 237 00fc 012A     		cmp	r2, #1
 238 00fe 02D1     		bne	.L14
 239 0100 586A     		ldr	r0, [r3, #36]
 240 0102 FFF7FEFF 		bl	EE_oo_GetResource
 241              	.LVL27:
 242              	.L14:
 317:.\source\rte/sc_events.h ****    signal->value  = value;
 243              		.loc 3 317 0
 244 0106 614B     		ldr	r3, .L43+4
 245 0108 0022     		movs	r2, #0
 246 010a 1A70     		strb	r2, [r3]
 318:.\source\rte/sc_events.h ****    signal->age    = 0;
 247              		.loc 3 318 0
 248 010c 5A60     		str	r2, [r3, #4]
 319:.\source\rte/sc_events.h ****    signal->status = RTE_SIGNALSTATUS_VALID;
 249              		.loc 3 319 0
 250 010e 0222     		movs	r2, #2
 251 0110 5A70     		strb	r2, [r3, #1]
 320:.\source\rte/sc_events.h ****    if (TRUE == signal->pSigCfg->resourceActive) ReleaseResource(signal->pSigCfg->resource);
 252              		.loc 3 320 0
 253 0112 9B68     		ldr	r3, [r3, #8]
 254 0114 93F82020 		ldrb	r2, [r3, #32]	@ zero_extendqisi2
 255 0118 012A     		cmp	r2, #1
 256 011a 02D1     		bne	.L15
 257 011c 586A     		ldr	r0, [r3, #36]
 258 011e FFF7FEFF 		bl	EE_oo_ReleaseResource
 259              	.LVL28:
 260              	.L15:
 321:.\source\rte/sc_events.h **** 
 322:.\source\rte/sc_events.h ****    //Pointer to the Taskarray, containing the tasks receiving the onUpdate events
 323:.\source\rte/sc_events.h ****    TaskTypeArray* pTaskArray = signal->pSigCfg->onUpdateTasks;
 261              		.loc 3 323 0
 262 0122 5A4B     		ldr	r3, .L43+4
 263 0124 9B68     		ldr	r3, [r3, #8]
 264 0126 5D69     		ldr	r5, [r3, #20]
 265              	.LVL29:
ARM GAS  C:\Users\zakis\AppData\Local\Temp\ccvN5P7b.s 			page 19


 324:.\source\rte/sc_events.h **** 
 325:.\source\rte/sc_events.h ****    if (0 != signal->pSigCfg->evOnUpdate && NULL != pTaskArray){
 266              		.loc 3 325 0
 267 0128 9B68     		ldr	r3, [r3, #8]
 268 012a 73B1     		cbz	r3, .L16
 269 012c 3DB9     		cbnz	r5, .L38
 270 012e 0CE0     		b	.L16
 271              	.LVL30:
 272              	.L18:
 273              	.LBB51:
 326:.\source\rte/sc_events.h ****       for( taskNum=0 ; taskNum < signal->pSigCfg->onUpdateTaskCount ;taskNum++){
 327:.\source\rte/sc_events.h **** 		  
 328:.\source\rte/sc_events.h ****           TaskType task = (*pTaskArray)[taskNum];
 329:.\source\rte/sc_events.h **** 	      SetEvent( task, signal->pSigCfg->evOnUpdate);
 274              		.loc 3 329 0
 275 0130 9968     		ldr	r1, [r3, #8]
 276 0132 55F82400 		ldr	r0, [r5, r4, lsl #2]
 277 0136 FFF7FEFF 		bl	EE_oo_SetEvent
 278              	.LVL31:
 279              	.LBE51:
 326:.\source\rte/sc_events.h ****       for( taskNum=0 ; taskNum < signal->pSigCfg->onUpdateTaskCount ;taskNum++){
 280              		.loc 3 326 0
 281 013a 0134     		adds	r4, r4, #1
 282              	.LVL32:
 283 013c 00E0     		b	.L17
 284              	.LVL33:
 285              	.L38:
 325:.\source\rte/sc_events.h ****       for( taskNum=0 ; taskNum < signal->pSigCfg->onUpdateTaskCount ;taskNum++){
 286              		.loc 3 325 0
 287 013e 0024     		movs	r4, #0
 288              	.LVL34:
 289              	.L17:
 326:.\source\rte/sc_events.h ****       for( taskNum=0 ; taskNum < signal->pSigCfg->onUpdateTaskCount ;taskNum++){
 290              		.loc 3 326 0
 291 0140 524B     		ldr	r3, .L43+4
 292 0142 9B68     		ldr	r3, [r3, #8]
 293 0144 1A69     		ldr	r2, [r3, #16]
 294 0146 9442     		cmp	r4, r2
 295 0148 F2D3     		bcc	.L18
 296              	.LVL35:
 297              	.L16:
 298              	.LBE50:
 299              	.LBE49:
  59:source\asw/swc_input.c ****         
  60:source\asw/swc_input.c ****         event.m_event = EV_KEYLEFT;
  61:source\asw/swc_input.c ****         RTE_SC_EVENTS_set(&SO_EVENTS_signal, event);
  62:source\asw/swc_input.c ****         
  63:source\asw/swc_input.c ****         UART_Logs_PutString("EV_KEYLEFT\n");
 300              		.loc 1 63 0
 301 014a 5148     		ldr	r0, .L43+8
 302 014c FFF7FEFF 		bl	UART_Logs_PutString
 303              	.LVL36:
  64:source\asw/swc_input.c ****         
  65:source\asw/swc_input.c ****         CancelAlarm(alrm_buttonPressed);
 304              		.loc 1 65 0
 305 0150 0320     		movs	r0, #3
 306 0152 FFF7FEFF 		bl	EE_oo_CancelAlarm
ARM GAS  C:\Users\zakis\AppData\Local\Temp\ccvN5P7b.s 			page 20


 307              	.LVL37:
 308 0156 B1E0     		b	.L1
 309              	.LVL38:
 310              	.L13:
  66:source\asw/swc_input.c ****         
  67:source\asw/swc_input.c ****     } else if (input.m_buttonLeftPressed == FALSE && input.m_buttonRightPressed == FALSE){
 311              		.loc 1 67 0
 312 0158 002B     		cmp	r3, #0
 313 015a 40F0AF80 		bne	.L1
 314              		.loc 1 67 0 is_stmt 0 discriminator 1
 315 015e 9DF80C30 		ldrb	r3, [sp, #12]	@ zero_extendqisi2
 316 0162 002B     		cmp	r3, #0
 317 0164 40F0AA80 		bne	.L1
  68:source\asw/swc_input.c ****         if ((input.m_buttonRightPressedTime >= 0) && (input.m_buttonRightPressedTime < 20)){
 318              		.loc 1 68 0 is_stmt 1
 319 0168 9DF80E30 		ldrb	r3, [sp, #14]	@ zero_extendqisi2
 320 016c 132B     		cmp	r3, #19
 321 016e 2FD8     		bhi	.L20
 322              	.LVL39:
 323              	.LBB52:
 324              	.LBB53:
 316:.\source\rte/sc_events.h ****    signal->value  = value;
 325              		.loc 3 316 0
 326 0170 464B     		ldr	r3, .L43+4
 327 0172 9B68     		ldr	r3, [r3, #8]
 328 0174 93F82020 		ldrb	r2, [r3, #32]	@ zero_extendqisi2
 329 0178 012A     		cmp	r2, #1
 330 017a 02D1     		bne	.L21
 331 017c 586A     		ldr	r0, [r3, #36]
 332 017e FFF7FEFF 		bl	EE_oo_GetResource
 333              	.LVL40:
 334              	.L21:
 317:.\source\rte/sc_events.h ****    signal->age    = 0;
 335              		.loc 3 317 0
 336 0182 424B     		ldr	r3, .L43+4
 337 0184 0122     		movs	r2, #1
 338 0186 1A70     		strb	r2, [r3]
 318:.\source\rte/sc_events.h ****    signal->status = RTE_SIGNALSTATUS_VALID;
 339              		.loc 3 318 0
 340 0188 0022     		movs	r2, #0
 341 018a 5A60     		str	r2, [r3, #4]
 319:.\source\rte/sc_events.h ****    if (TRUE == signal->pSigCfg->resourceActive) ReleaseResource(signal->pSigCfg->resource);
 342              		.loc 3 319 0
 343 018c 0222     		movs	r2, #2
 344 018e 5A70     		strb	r2, [r3, #1]
 320:.\source\rte/sc_events.h **** 
 345              		.loc 3 320 0
 346 0190 9B68     		ldr	r3, [r3, #8]
 347 0192 93F82020 		ldrb	r2, [r3, #32]	@ zero_extendqisi2
 348 0196 012A     		cmp	r2, #1
 349 0198 02D1     		bne	.L22
 350 019a 586A     		ldr	r0, [r3, #36]
 351 019c FFF7FEFF 		bl	EE_oo_ReleaseResource
 352              	.LVL41:
 353              	.L22:
 323:.\source\rte/sc_events.h **** 
 354              		.loc 3 323 0
ARM GAS  C:\Users\zakis\AppData\Local\Temp\ccvN5P7b.s 			page 21


 355 01a0 3A4B     		ldr	r3, .L43+4
 356 01a2 9B68     		ldr	r3, [r3, #8]
 357 01a4 5D69     		ldr	r5, [r3, #20]
 358              	.LVL42:
 325:.\source\rte/sc_events.h ****       for( taskNum=0 ; taskNum < signal->pSigCfg->onUpdateTaskCount ;taskNum++){
 359              		.loc 3 325 0
 360 01a6 9B68     		ldr	r3, [r3, #8]
 361 01a8 73B1     		cbz	r3, .L23
 362 01aa 3DB9     		cbnz	r5, .L39
 363 01ac 0CE0     		b	.L23
 364              	.LVL43:
 365              	.L25:
 366              	.LBB54:
 367              		.loc 3 329 0
 368 01ae 9968     		ldr	r1, [r3, #8]
 369 01b0 55F82400 		ldr	r0, [r5, r4, lsl #2]
 370 01b4 FFF7FEFF 		bl	EE_oo_SetEvent
 371              	.LVL44:
 372              	.LBE54:
 326:.\source\rte/sc_events.h **** 		  
 373              		.loc 3 326 0
 374 01b8 0134     		adds	r4, r4, #1
 375              	.LVL45:
 376 01ba 00E0     		b	.L24
 377              	.LVL46:
 378              	.L39:
 325:.\source\rte/sc_events.h ****       for( taskNum=0 ; taskNum < signal->pSigCfg->onUpdateTaskCount ;taskNum++){
 379              		.loc 3 325 0
 380 01bc 0024     		movs	r4, #0
 381              	.LVL47:
 382              	.L24:
 326:.\source\rte/sc_events.h **** 		  
 383              		.loc 3 326 0
 384 01be 334B     		ldr	r3, .L43+4
 385 01c0 9B68     		ldr	r3, [r3, #8]
 386 01c2 1A69     		ldr	r2, [r3, #16]
 387 01c4 9442     		cmp	r4, r2
 388 01c6 F2D3     		bcc	.L25
 389              	.LVL48:
 390              	.L23:
 391              	.LBE53:
 392              	.LBE52:
  69:source\asw/swc_input.c ****             
  70:source\asw/swc_input.c ****             event.m_event = EV_KEYRIGHT;
  71:source\asw/swc_input.c ****             RTE_SC_EVENTS_set(&SO_EVENTS_signal, event);
  72:source\asw/swc_input.c ****             
  73:source\asw/swc_input.c ****             UART_Logs_PutString("EV_KEYRIGHT\n");
 393              		.loc 1 73 0
 394 01c8 3248     		ldr	r0, .L43+12
 395 01ca FFF7FEFF 		bl	UART_Logs_PutString
 396              	.LVL49:
 397 01ce 72E0     		b	.L26
 398              	.LVL50:
 399              	.L20:
  74:source\asw/swc_input.c ****             
  75:source\asw/swc_input.c ****         } else if (input.m_buttonRightPressedTime >= 20){
 400              		.loc 1 75 0
ARM GAS  C:\Users\zakis\AppData\Local\Temp\ccvN5P7b.s 			page 22


 401 01d0 132B     		cmp	r3, #19
 402 01d2 70D9     		bls	.L26
 403              	.LVL51:
 404              	.LBB55:
 405              	.LBB56:
 316:.\source\rte/sc_events.h ****    signal->value  = value;
 406              		.loc 3 316 0
 407 01d4 2D4B     		ldr	r3, .L43+4
 408 01d6 9B68     		ldr	r3, [r3, #8]
 409 01d8 93F82020 		ldrb	r2, [r3, #32]	@ zero_extendqisi2
 410 01dc 012A     		cmp	r2, #1
 411 01de 02D1     		bne	.L27
 412 01e0 586A     		ldr	r0, [r3, #36]
 413 01e2 FFF7FEFF 		bl	EE_oo_GetResource
 414              	.LVL52:
 415              	.L27:
 317:.\source\rte/sc_events.h ****    signal->age    = 0;
 416              		.loc 3 317 0
 417 01e6 294B     		ldr	r3, .L43+4
 418 01e8 0222     		movs	r2, #2
 419 01ea 1A70     		strb	r2, [r3]
 318:.\source\rte/sc_events.h ****    signal->status = RTE_SIGNALSTATUS_VALID;
 420              		.loc 3 318 0
 421 01ec 0022     		movs	r2, #0
 422 01ee 5A60     		str	r2, [r3, #4]
 319:.\source\rte/sc_events.h ****    if (TRUE == signal->pSigCfg->resourceActive) ReleaseResource(signal->pSigCfg->resource);
 423              		.loc 3 319 0
 424 01f0 0222     		movs	r2, #2
 425 01f2 5A70     		strb	r2, [r3, #1]
 320:.\source\rte/sc_events.h **** 
 426              		.loc 3 320 0
 427 01f4 9B68     		ldr	r3, [r3, #8]
 428 01f6 93F82020 		ldrb	r2, [r3, #32]	@ zero_extendqisi2
 429 01fa 012A     		cmp	r2, #1
 430 01fc 02D1     		bne	.L28
 431 01fe 586A     		ldr	r0, [r3, #36]
 432 0200 FFF7FEFF 		bl	EE_oo_ReleaseResource
 433              	.LVL53:
 434              	.L28:
 323:.\source\rte/sc_events.h **** 
 435              		.loc 3 323 0
 436 0204 214B     		ldr	r3, .L43+4
 437 0206 9B68     		ldr	r3, [r3, #8]
 438 0208 5D69     		ldr	r5, [r3, #20]
 439              	.LVL54:
 325:.\source\rte/sc_events.h ****       for( taskNum=0 ; taskNum < signal->pSigCfg->onUpdateTaskCount ;taskNum++){
 440              		.loc 3 325 0
 441 020a 9B68     		ldr	r3, [r3, #8]
 442 020c 73B1     		cbz	r3, .L29
 443 020e 3DB9     		cbnz	r5, .L40
 444 0210 0CE0     		b	.L29
 445              	.LVL55:
 446              	.L31:
 447              	.LBB57:
 448              		.loc 3 329 0
 449 0212 9968     		ldr	r1, [r3, #8]
 450 0214 55F82400 		ldr	r0, [r5, r4, lsl #2]
ARM GAS  C:\Users\zakis\AppData\Local\Temp\ccvN5P7b.s 			page 23


 451 0218 FFF7FEFF 		bl	EE_oo_SetEvent
 452              	.LVL56:
 453              	.LBE57:
 326:.\source\rte/sc_events.h **** 		  
 454              		.loc 3 326 0
 455 021c 0134     		adds	r4, r4, #1
 456              	.LVL57:
 457 021e 00E0     		b	.L30
 458              	.LVL58:
 459              	.L40:
 325:.\source\rte/sc_events.h ****       for( taskNum=0 ; taskNum < signal->pSigCfg->onUpdateTaskCount ;taskNum++){
 460              		.loc 3 325 0
 461 0220 0024     		movs	r4, #0
 462              	.LVL59:
 463              	.L30:
 326:.\source\rte/sc_events.h **** 		  
 464              		.loc 3 326 0
 465 0222 1A4B     		ldr	r3, .L43+4
 466 0224 9B68     		ldr	r3, [r3, #8]
 467 0226 1A69     		ldr	r2, [r3, #16]
 468 0228 9442     		cmp	r4, r2
 469 022a F2D3     		bcc	.L31
 470              	.LVL60:
 471              	.L29:
 472              	.LBE56:
 473              	.LBE55:
  76:source\asw/swc_input.c ****             
  77:source\asw/swc_input.c ****             event.m_event = EV_KEYRIGHTLONGPRESS;
  78:source\asw/swc_input.c ****             RTE_SC_EVENTS_set(&SO_EVENTS_signal, event);
  79:source\asw/swc_input.c ****             
  80:source\asw/swc_input.c ****             UART_Logs_PutString("EV_KEYRIGHTLONGPRESS\n");
 474              		.loc 1 80 0
 475 022c 1A48     		ldr	r0, .L43+16
 476 022e FFF7FEFF 		bl	UART_Logs_PutString
 477              	.LVL61:
  81:source\asw/swc_input.c ****             
  82:source\asw/swc_input.c ****             input.m_buttonRightPressedTime = 0;
 478              		.loc 1 82 0
 479 0232 0023     		movs	r3, #0
 480 0234 8DF80E30 		strb	r3, [sp, #14]
 481              	.LVL62:
 482 0238 039B     		ldr	r3, [sp, #12]
 483 023a ADF80830 		strh	r3, [sp, #8]	@ movhi
 484 023e 1B0C     		lsrs	r3, r3, #16
 485 0240 8DF80A30 		strb	r3, [sp, #10]
 486              	.LVL63:
 487              	.LBB58:
 488              	.LBB59:
 316:.\source\rte/sc_buttons.h ****    signal->value  = value;
 489              		.loc 2 316 0
 490 0244 104B     		ldr	r3, .L43
 491 0246 9B68     		ldr	r3, [r3, #8]
 492 0248 93F82020 		ldrb	r2, [r3, #32]	@ zero_extendqisi2
 493 024c 012A     		cmp	r2, #1
 494 024e 02D1     		bne	.L32
 495 0250 586A     		ldr	r0, [r3, #36]
 496 0252 FFF7FEFF 		bl	EE_oo_GetResource
ARM GAS  C:\Users\zakis\AppData\Local\Temp\ccvN5P7b.s 			page 24


 497              	.LVL64:
 498              	.L32:
 317:.\source\rte/sc_buttons.h ****    signal->age    = 0;
 499              		.loc 2 317 0
 500 0256 0C4B     		ldr	r3, .L43
 501 0258 029A     		ldr	r2, [sp, #8]
 502 025a 1A80     		strh	r2, [r3]	@ movhi
 503 025c 120C     		lsrs	r2, r2, #16
 504 025e 9A70     		strb	r2, [r3, #2]
 318:.\source\rte/sc_buttons.h ****    signal->status = RTE_SIGNALSTATUS_VALID;
 505              		.loc 2 318 0
 506 0260 0022     		movs	r2, #0
 507 0262 5A60     		str	r2, [r3, #4]
 319:.\source\rte/sc_buttons.h ****    if (TRUE == signal->pSigCfg->resourceActive) ReleaseResource(signal->pSigCfg->resource);
 508              		.loc 2 319 0
 509 0264 0222     		movs	r2, #2
 510 0266 DA70     		strb	r2, [r3, #3]
 320:.\source\rte/sc_buttons.h **** 
 511              		.loc 2 320 0
 512 0268 9B68     		ldr	r3, [r3, #8]
 513 026a 93F82020 		ldrb	r2, [r3, #32]	@ zero_extendqisi2
 514 026e 012A     		cmp	r2, #1
 515 0270 02D1     		bne	.L33
 516 0272 586A     		ldr	r0, [r3, #36]
 517 0274 FFF7FEFF 		bl	EE_oo_ReleaseResource
 518              	.LVL65:
 519              	.L33:
 323:.\source\rte/sc_buttons.h **** 
 520              		.loc 2 323 0
 521 0278 034B     		ldr	r3, .L43
 522 027a 9B68     		ldr	r3, [r3, #8]
 523 027c 5D69     		ldr	r5, [r3, #20]
 524              	.LVL66:
 325:.\source\rte/sc_buttons.h ****       for( taskNum=0 ; taskNum < signal->pSigCfg->onUpdateTaskCount ;taskNum++){
 525              		.loc 2 325 0
 526 027e 9B68     		ldr	r3, [r3, #8]
 527 0280 CBB1     		cbz	r3, .L26
 528 0282 95B9     		cbnz	r5, .L41
 529 0284 17E0     		b	.L26
 530              	.L44:
 531 0286 00BF     		.align	2
 532              	.L43:
 533 0288 00000000 		.word	SO_BUTTONS_signal
 534 028c 00000000 		.word	SO_EVENTS_signal
 535 0290 00000000 		.word	.LC0
 536 0294 0C000000 		.word	.LC1
 537 0298 1C000000 		.word	.LC2
 538              	.LVL67:
 539              	.L35:
 540              	.LBB60:
 329:.\source\rte/sc_buttons.h ****       }
 541              		.loc 2 329 0
 542 029c 9968     		ldr	r1, [r3, #8]
 543 029e 55F82400 		ldr	r0, [r5, r4, lsl #2]
 544 02a2 FFF7FEFF 		bl	EE_oo_SetEvent
 545              	.LVL68:
 546              	.LBE60:
ARM GAS  C:\Users\zakis\AppData\Local\Temp\ccvN5P7b.s 			page 25


 326:.\source\rte/sc_buttons.h **** 		  
 547              		.loc 2 326 0
 548 02a6 0134     		adds	r4, r4, #1
 549              	.LVL69:
 550 02a8 00E0     		b	.L34
 551              	.LVL70:
 552              	.L41:
 325:.\source\rte/sc_buttons.h ****       for( taskNum=0 ; taskNum < signal->pSigCfg->onUpdateTaskCount ;taskNum++){
 553              		.loc 2 325 0
 554 02aa 0024     		movs	r4, #0
 555              	.LVL71:
 556              	.L34:
 326:.\source\rte/sc_buttons.h **** 		  
 557              		.loc 2 326 0
 558 02ac 044B     		ldr	r3, .L45
 559 02ae 9B68     		ldr	r3, [r3, #8]
 560 02b0 1A69     		ldr	r2, [r3, #16]
 561 02b2 9442     		cmp	r4, r2
 562 02b4 F2D3     		bcc	.L35
 563              	.LVL72:
 564              	.L26:
 565              	.LBE59:
 566              	.LBE58:
  83:source\asw/swc_input.c ****             RTE_SC_BUTTONS_set(&SO_BUTTONS_signal, input);
  84:source\asw/swc_input.c ****         }
  85:source\asw/swc_input.c **** 
  86:source\asw/swc_input.c ****         CancelAlarm(alrm_buttonPressed);
 567              		.loc 1 86 0
 568 02b6 0320     		movs	r0, #3
 569 02b8 FFF7FEFF 		bl	EE_oo_CancelAlarm
 570              	.LVL73:
 571              	.L1:
  87:source\asw/swc_input.c ****     }
  88:source\asw/swc_input.c ****     
  89:source\asw/swc_input.c ****     
  90:source\asw/swc_input.c ****     
  91:source\asw/swc_input.c ****     
  92:source\asw/swc_input.c **** 
  93:source\asw/swc_input.c **** 
  94:source\asw/swc_input.c ****     /* USER CODE END INPUT_readButtons_run */
  95:source\asw/swc_input.c **** }
 572              		.loc 1 95 0
 573 02bc 05B0     		add	sp, sp, #20
 574              		.cfi_def_cfa_offset 12
 575              		@ sp needed
 576 02be 30BD     		pop	{r4, r5, pc}
 577              	.L46:
 578              		.align	2
 579              	.L45:
 580 02c0 00000000 		.word	SO_BUTTONS_signal
 581              		.cfi_endproc
 582              	.LFE143:
 583              		.size	INPUT_readButtons_run, .-INPUT_readButtons_run
 584              		.section	.text.INPUT_1min_run,"ax",%progbits
 585              		.align	2
 586              		.global	INPUT_1min_run
 587              		.thumb
ARM GAS  C:\Users\zakis\AppData\Local\Temp\ccvN5P7b.s 			page 26


 588              		.thumb_func
 589              		.type	INPUT_1min_run, %function
 590              	INPUT_1min_run:
 591              	.LFB144:
  96:source\asw/swc_input.c **** 
  97:source\asw/swc_input.c **** /*
  98:source\asw/swc_input.c ****  * component: swc_input
  99:source\asw/swc_input.c ****  * cycletime: 60000
 100:source\asw/swc_input.c ****  * description: Runnable
 101:source\asw/swc_input.c ****  * events: ev_60000ms
 102:source\asw/swc_input.c ****  * name: INPUT_1min_run
 103:source\asw/swc_input.c ****  * shortname: 1sec
 104:source\asw/swc_input.c ****  * signalIN: 
 105:source\asw/swc_input.c ****  * signalOUT: so_events
 106:source\asw/swc_input.c ****  * task: tsk_input
 107:source\asw/swc_input.c ****  */
 108:source\asw/swc_input.c **** void INPUT_1min_run(RTE_event ev){
 592              		.loc 1 108 0
 593              		.cfi_startproc
 594              		@ args = 0, pretend = 0, frame = 0
 595              		@ frame_needed = 0, uses_anonymous_args = 0
 596              	.LVL74:
 597 0000 38B5     		push	{r3, r4, r5, lr}
 598              		.cfi_def_cfa_offset 16
 599              		.cfi_offset 3, -16
 600              		.cfi_offset 4, -12
 601              		.cfi_offset 5, -8
 602              		.cfi_offset 14, -4
 603              	.LVL75:
 604              	.LBB61:
 605              	.LBB62:
 316:.\source\rte/sc_events.h ****    signal->value  = value;
 606              		.loc 3 316 0
 607 0002 164B     		ldr	r3, .L55
 608 0004 9B68     		ldr	r3, [r3, #8]
 609 0006 93F82020 		ldrb	r2, [r3, #32]	@ zero_extendqisi2
 610 000a 012A     		cmp	r2, #1
 611 000c 02D1     		bne	.L48
 612 000e 586A     		ldr	r0, [r3, #36]
 613              	.LVL76:
 614 0010 FFF7FEFF 		bl	EE_oo_GetResource
 615              	.LVL77:
 616              	.L48:
 317:.\source\rte/sc_events.h ****    signal->age    = 0;
 617              		.loc 3 317 0
 618 0014 114B     		ldr	r3, .L55
 619 0016 0322     		movs	r2, #3
 620 0018 1A70     		strb	r2, [r3]
 318:.\source\rte/sc_events.h ****    signal->status = RTE_SIGNALSTATUS_VALID;
 621              		.loc 3 318 0
 622 001a 0022     		movs	r2, #0
 623 001c 5A60     		str	r2, [r3, #4]
 319:.\source\rte/sc_events.h ****    if (TRUE == signal->pSigCfg->resourceActive) ReleaseResource(signal->pSigCfg->resource);
 624              		.loc 3 319 0
 625 001e 0222     		movs	r2, #2
 626 0020 5A70     		strb	r2, [r3, #1]
 320:.\source\rte/sc_events.h **** 
ARM GAS  C:\Users\zakis\AppData\Local\Temp\ccvN5P7b.s 			page 27


 627              		.loc 3 320 0
 628 0022 9B68     		ldr	r3, [r3, #8]
 629 0024 93F82020 		ldrb	r2, [r3, #32]	@ zero_extendqisi2
 630 0028 012A     		cmp	r2, #1
 631 002a 02D1     		bne	.L49
 632 002c 586A     		ldr	r0, [r3, #36]
 633 002e FFF7FEFF 		bl	EE_oo_ReleaseResource
 634              	.LVL78:
 635              	.L49:
 323:.\source\rte/sc_events.h **** 
 636              		.loc 3 323 0
 637 0032 0A4B     		ldr	r3, .L55
 638 0034 9B68     		ldr	r3, [r3, #8]
 639 0036 5D69     		ldr	r5, [r3, #20]
 640              	.LVL79:
 325:.\source\rte/sc_events.h ****       for( taskNum=0 ; taskNum < signal->pSigCfg->onUpdateTaskCount ;taskNum++){
 641              		.loc 3 325 0
 642 0038 9B68     		ldr	r3, [r3, #8]
 643 003a 73B1     		cbz	r3, .L47
 644 003c 3DB9     		cbnz	r5, .L53
 645 003e 38BD     		pop	{r3, r4, r5, pc}
 646              	.LVL80:
 647              	.L52:
 648              	.LBB63:
 649              		.loc 3 329 0
 650 0040 9968     		ldr	r1, [r3, #8]
 651 0042 55F82400 		ldr	r0, [r5, r4, lsl #2]
 652 0046 FFF7FEFF 		bl	EE_oo_SetEvent
 653              	.LVL81:
 654              	.LBE63:
 326:.\source\rte/sc_events.h **** 		  
 655              		.loc 3 326 0
 656 004a 0134     		adds	r4, r4, #1
 657              	.LVL82:
 658 004c 00E0     		b	.L51
 659              	.LVL83:
 660              	.L53:
 325:.\source\rte/sc_events.h ****       for( taskNum=0 ; taskNum < signal->pSigCfg->onUpdateTaskCount ;taskNum++){
 661              		.loc 3 325 0
 662 004e 0024     		movs	r4, #0
 663              	.LVL84:
 664              	.L51:
 326:.\source\rte/sc_events.h **** 		  
 665              		.loc 3 326 0
 666 0050 024B     		ldr	r3, .L55
 667 0052 9B68     		ldr	r3, [r3, #8]
 668 0054 1A69     		ldr	r2, [r3, #16]
 669 0056 9442     		cmp	r4, r2
 670 0058 F2D3     		bcc	.L52
 671              	.LVL85:
 672              	.L47:
 673 005a 38BD     		pop	{r3, r4, r5, pc}
 674              	.LVL86:
 675              	.L56:
 676              		.align	2
 677              	.L55:
 678 005c 00000000 		.word	SO_EVENTS_signal
ARM GAS  C:\Users\zakis\AppData\Local\Temp\ccvN5P7b.s 			page 28


 679              	.LBE62:
 680              	.LBE61:
 681              		.cfi_endproc
 682              	.LFE144:
 683              		.size	INPUT_1min_run, .-INPUT_1min_run
 684              		.section	.text.INPUT_250ms_run,"ax",%progbits
 685              		.align	2
 686              		.global	INPUT_250ms_run
 687              		.thumb
 688              		.thumb_func
 689              		.type	INPUT_250ms_run, %function
 690              	INPUT_250ms_run:
 691              	.LFB145:
 109:source\asw/swc_input.c **** 	
 110:source\asw/swc_input.c **** 	/* USER CODE START INPUT_1sec_run */
 111:source\asw/swc_input.c **** //    UART_Logs_PutString("INPUT_1sec_run\n");
 112:source\asw/swc_input.c ****     
 113:source\asw/swc_input.c ****     SC_EVENTS_data_t event = SC_EVENTS_INIT_DATA;
 114:source\asw/swc_input.c ****     event.m_event = EV_1MIN;
 115:source\asw/swc_input.c ****     RTE_SC_EVENTS_set(&SO_EVENTS_signal, event);
 116:source\asw/swc_input.c ****     
 117:source\asw/swc_input.c **** 
 118:source\asw/swc_input.c ****     /* USER CODE END INPUT_1sec_run */
 119:source\asw/swc_input.c **** }
 120:source\asw/swc_input.c **** 
 121:source\asw/swc_input.c **** /*
 122:source\asw/swc_input.c ****  * component: swc_input
 123:source\asw/swc_input.c ****  * cycletime: 250
 124:source\asw/swc_input.c ****  * description: Runnable
 125:source\asw/swc_input.c ****  * events: ev_250ms
 126:source\asw/swc_input.c ****  * name: INPUT_250ms_run
 127:source\asw/swc_input.c ****  * shortname: 250ms
 128:source\asw/swc_input.c ****  * signalIN: 
 129:source\asw/swc_input.c ****  * signalOUT: so_events
 130:source\asw/swc_input.c ****  * task: tsk_input
 131:source\asw/swc_input.c ****  */
 132:source\asw/swc_input.c **** void INPUT_250ms_run(RTE_event ev){
 692              		.loc 1 132 0
 693              		.cfi_startproc
 694              		@ args = 0, pretend = 0, frame = 0
 695              		@ frame_needed = 0, uses_anonymous_args = 0
 696              		@ link register save eliminated.
 697              	.LVL87:
 698 0000 7047     		bx	lr
 699              		.cfi_endproc
 700              	.LFE145:
 701              		.size	INPUT_250ms_run, .-INPUT_250ms_run
 702 0002 00BF     		.section	.rodata.str1.4,"aMS",%progbits,1
 703              		.align	2
 704              	.LC0:
 705 0000 45565F4B 		.ascii	"EV_KEYLEFT\012\000"
 705      45594C45 
 705      46540A00 
 706              	.LC1:
 707 000c 45565F4B 		.ascii	"EV_KEYRIGHT\012\000"
 707      45595249 
 707      4748540A 
ARM GAS  C:\Users\zakis\AppData\Local\Temp\ccvN5P7b.s 			page 29


 707      00
 708 0019 000000   		.space	3
 709              	.LC2:
 710 001c 45565F4B 		.ascii	"EV_KEYRIGHTLONGPRESS\012\000"
 710      45595249 
 710      4748544C 
 710      4F4E4750 
 710      52455353 
 711              		.text
 712              	.Letext0:
 713              		.file 4 "c:\\program files (x86)\\cypress\\psoc creator\\4.4\\psoc creator\\import\\gnu\\arm\\5.4.
 714              		.file 5 "c:\\program files (x86)\\cypress\\psoc creator\\4.4\\psoc creator\\import\\gnu\\arm\\5.4.
 715              		.file 6 "c:\\program files (x86)\\cypress\\psoc creator\\4.4\\psoc creator\\import\\gnu\\arm\\5.4.
 716              		.file 7 "Generated_Source\\PSoC5/ErikaOS_1_common_ee_types.inc"
 717              		.file 8 "Generated_Source\\PSoC5/ErikaOS_1_cortex_mx_ee_cpu.inc"
 718              		.file 9 "Generated_Source\\PSoC5/ErikaOS_1_ee_oo_common.inc"
 719              		.file 10 ".\\source\\bsw/global.h"
 720              		.file 11 ".\\source/rte_types.h"
 721              		.file 12 ".\\source/rte.h"
 722              		.file 13 ".\\source\\rte/sc_buttons_type.h"
 723              		.file 14 ".\\source\\bsw/statemachine_type.h"
 724              		.file 15 ".\\source\\rte/sc_events_type.h"
 725              		.file 16 "Generated_Source\\PSoC5/ErikaOS_1_ee_oo_intfunc.inc"
 726              		.file 17 "Generated_Source\\PSoC5/ErikaOS_1_cortex_mx_ee_context.inc"
 727              		.file 18 "Generated_Source\\PSoC5/ErikaOS_1_common_ee_primitives.inc"
 728              		.file 19 "Generated_Source\\PSoC5/core_cm3.h"
 729              		.file 20 ".\\source\\rte/sp_common.h"
 730              		.file 21 "Generated_Source\\PSoC5/ErikaOS_1_ee_oo_kernel.inc"
 731              		.file 22 "Generated_Source\\PSoC5/UART_Logs.h"