ARM GAS  C:\Users\zakis\AppData\Local\Temp\cc6x66Sb.s 			page 1


   1              		.syntax unified
   2              		.cpu cortex-m3
   3              		.fpu softvfp
   4              		.eabi_attribute 20, 1
   5              		.eabi_attribute 21, 1
   6              		.eabi_attribute 23, 3
   7              		.eabi_attribute 24, 1
   8              		.eabi_attribute 25, 1
   9              		.eabi_attribute 26, 1
  10              		.eabi_attribute 30, 1
  11              		.eabi_attribute 34, 1
  12              		.eabi_attribute 18, 4
  13              		.thumb
  14              		.syntax unified
  15              		.file	"tsk_input.c"
  16              		.text
  17              	.Ltext0:
  18              		.cfi_sections	.debug_frame
  19              		.section	.text.Functsk_input,"ax",%progbits
  20              		.align	2
  21              		.global	Functsk_input
  22              		.thumb
  23              		.thumb_func
  24              		.type	Functsk_input, %function
  25              	Functsk_input:
  26              	.LFB110:
  27              		.file 1 "source\\asw\\tsk_input.c"
   1:source\asw/tsk_input.c **** /*
   2:source\asw/tsk_input.c ****  * Filename: tsk_input.c
   3:source\asw/tsk_input.c ****  *
   4:source\asw/tsk_input.c ****  * Author: Autogenerated by H-DA RTE Generator, (c) Prof. Fromm
   5:source\asw/tsk_input.c ****  *
   6:source\asw/tsk_input.c ****  * description: Task doing work
   7:source\asw/tsk_input.c ****  * events: ev_250ms|ev_ButtonsPressed
   8:source\asw/tsk_input.c ****  * mode: Cyclic and Event
   9:source\asw/tsk_input.c ****  * name: tsk_input
  10:source\asw/tsk_input.c ****  * shortname: input
  11:source\asw/tsk_input.c ****  * signalpoolsRO: sp_common
  12:source\asw/tsk_input.c ****  * signalpoolsRW: sp_common
  13:source\asw/tsk_input.c ****  * tickEvent: ev_250ms
  14:source\asw/tsk_input.c ****  * timertickperiod: 250
  15:source\asw/tsk_input.c ****  *
  16:source\asw/tsk_input.c ****  */
  17:source\asw/tsk_input.c **** 
  18:source\asw/tsk_input.c **** #include "project.h"
  19:source\asw/tsk_input.c **** #include "global.h"
  20:source\asw/tsk_input.c **** #include "rte.h"
  21:source\asw/tsk_input.c **** #include "rte_types.h"
  22:source\asw/tsk_input.c **** #include "tsk_input.h"
  23:source\asw/tsk_input.c **** 
  24:source\asw/tsk_input.c **** 
  25:source\asw/tsk_input.c **** 
  26:source\asw/tsk_input.c **** /* USER CODE START TSK_INPUT_INCLUDE */
  27:source\asw/tsk_input.c **** 
  28:source\asw/tsk_input.c **** /* USER CODE END TSK_INPUT_INCLUDE */
  29:source\asw/tsk_input.c **** 
  30:source\asw/tsk_input.c **** #include "swc_input.h"
ARM GAS  C:\Users\zakis\AppData\Local\Temp\cc6x66Sb.s 			page 2


  31:source\asw/tsk_input.c **** 
  32:source\asw/tsk_input.c **** 
  33:source\asw/tsk_input.c **** 
  34:source\asw/tsk_input.c **** /* USER CODE START TSK_INPUT_USERDEFINITIONS */
  35:source\asw/tsk_input.c **** 
  36:source\asw/tsk_input.c **** /* USER CODE END TSK_INPUT_USERDEFINITIONS */
  37:source\asw/tsk_input.c **** 
  38:source\asw/tsk_input.c **** /*******************************************************************************
  39:source\asw/tsk_input.c ****  * Runnable Tables from Activation Engine
  40:source\asw/tsk_input.c ****  *******************************************************************************/
  41:source\asw/tsk_input.c **** 
  42:source\asw/tsk_input.c **** /* Cyclic Table */
  43:source\asw/tsk_input.c **** 
  44:source\asw/tsk_input.c **** const RTE_cyclicTable_t RTE_cyclicActivationTable_tsk_input[] = {
  45:source\asw/tsk_input.c **** };
  46:source\asw/tsk_input.c **** const uint16_t RTE_cyclicActivation_tsk_input_size = sizeof (RTE_cyclicActivationTable_tsk_input) /
  47:source\asw/tsk_input.c **** 
  48:source\asw/tsk_input.c **** /* Event Table */
  49:source\asw/tsk_input.c **** const RTE_eventTable_t RTE_eventActivationTable_tsk_input[] = {
  50:source\asw/tsk_input.c ****     { INPUT_readButtons_run, ev_50ms },  //Runnable
  51:source\asw/tsk_input.c ****     { INPUT_250ms_run, ev_250ms },	//Runnable
  52:source\asw/tsk_input.c ****     { INPUT_1min_run, ev_1min },	//Runnable
  53:source\asw/tsk_input.c **** }; 
  54:source\asw/tsk_input.c **** const uint16_t RTE_eventActivation_tsk_input_size = sizeof (RTE_eventActivationTable_tsk_input) / s
  55:source\asw/tsk_input.c **** 
  56:source\asw/tsk_input.c **** /*******************************************************************************
  57:source\asw/tsk_input.c ****  * Task Body
  58:source\asw/tsk_input.c ****  *******************************************************************************/
  59:source\asw/tsk_input.c **** 
  60:source\asw/tsk_input.c **** 
  61:source\asw/tsk_input.c **** /*
  62:source\asw/tsk_input.c ****  * description: Task doing work
  63:source\asw/tsk_input.c ****  * events: ev_250ms|ev_ButtonsPressed
  64:source\asw/tsk_input.c ****  * mode: Cyclic and Event
  65:source\asw/tsk_input.c ****  * name: tsk_input
  66:source\asw/tsk_input.c ****  * shortname: input
  67:source\asw/tsk_input.c ****  * signalpoolsRO: sp_common
  68:source\asw/tsk_input.c ****  * signalpoolsRW: sp_common
  69:source\asw/tsk_input.c ****  * tickEvent: ev_250ms
  70:source\asw/tsk_input.c ****  * timertickperiod: 250
  71:source\asw/tsk_input.c ****  */
  72:source\asw/tsk_input.c **** TASK(tsk_input)
  73:source\asw/tsk_input.c **** {
  28              		.loc 1 73 0
  29              		.cfi_startproc
  30              		@ args = 0, pretend = 0, frame = 8
  31              		@ frame_needed = 0, uses_anonymous_args = 0
  32 0000 00B5     		push	{lr}
  33              		.cfi_def_cfa_offset 4
  34              		.cfi_offset 14, -4
  35 0002 83B0     		sub	sp, sp, #12
  36              		.cfi_def_cfa_offset 16
  37              	.LVL0:
  74:source\asw/tsk_input.c **** 	/* ticktime of the task */
  75:source\asw/tsk_input.c **** 	uint32_t ticktime = 0;
  76:source\asw/tsk_input.c **** 	
  77:source\asw/tsk_input.c ****     EventMaskType ev = 0;
ARM GAS  C:\Users\zakis\AppData\Local\Temp\cc6x66Sb.s 			page 3


  38              		.loc 1 77 0
  39 0004 0023     		movs	r3, #0
  40 0006 0193     		str	r3, [sp, #4]
  41              	.L2:
  78:source\asw/tsk_input.c **** 	
  79:source\asw/tsk_input.c **** 	/* USER CODE START TSK_INPUT_INIT */
  80:source\asw/tsk_input.c **** 
  81:source\asw/tsk_input.c **** 	/* USER CODE END TSK_INPUT_INIT */
  82:source\asw/tsk_input.c ****     
  83:source\asw/tsk_input.c ****     while(1)
  84:source\asw/tsk_input.c ****     {
  85:source\asw/tsk_input.c ****         //Wait, read and clear the event
  86:source\asw/tsk_input.c ****         WaitEvent(ev_250ms|ev_1min|ev_50ms);
  42              		.loc 1 86 0 discriminator 1
  43 0008 1C20     		movs	r0, #28
  44 000a FFF7FEFF 		bl	EE_oo_WaitEvent
  45              	.LVL1:
  87:source\asw/tsk_input.c ****         GetEvent(tsk_input,&ev);
  46              		.loc 1 87 0 discriminator 1
  47 000e 01A9     		add	r1, sp, #4
  48 0010 0220     		movs	r0, #2
  49 0012 FFF7FEFF 		bl	EE_oo_GetEvent
  50              	.LVL2:
  88:source\asw/tsk_input.c ****         ClearEvent(ev);
  51              		.loc 1 88 0 discriminator 1
  52 0016 0198     		ldr	r0, [sp, #4]
  53 0018 FFF7FEFF 		bl	EE_oo_ClearEvent
  54              	.LVL3:
  89:source\asw/tsk_input.c ****     
  90:source\asw/tsk_input.c **** 		/* USER CODE START TSK_INPUT_TASKBOBY_PRE */
  91:source\asw/tsk_input.c **** 
  92:source\asw/tsk_input.c **** 		/* USER CODE END TSK_INPUT_TASKBODY_PRE */
  93:source\asw/tsk_input.c ****         		
  94:source\asw/tsk_input.c **** 		//Process data driven events
  95:source\asw/tsk_input.c **** 		RTE_ProcessEventTable(RTE_eventActivationTable_tsk_input, RTE_eventActivation_tsk_input_size, ev)
  55              		.loc 1 95 0 discriminator 1
  56 001c 019A     		ldr	r2, [sp, #4]
  57 001e 0321     		movs	r1, #3
  58 0020 0148     		ldr	r0, .L4
  59 0022 FFF7FEFF 		bl	RTE_ProcessEventTable
  60              	.LVL4:
  61 0026 EFE7     		b	.L2
  62              	.L5:
  63              		.align	2
  64              	.L4:
  65 0028 00000000 		.word	.LANCHOR0
  66              		.cfi_endproc
  67              	.LFE110:
  68              		.size	Functsk_input, .-Functsk_input
  69              		.section	.text.isr_Button,"ax",%progbits
  70              		.align	2
  71              		.global	isr_Button
  72              		.thumb
  73              		.thumb_func
  74              		.type	isr_Button, %function
  75              	isr_Button:
  76              	.LFB111:
ARM GAS  C:\Users\zakis\AppData\Local\Temp\cc6x66Sb.s 			page 4


  96:source\asw/tsk_input.c **** 		
  97:source\asw/tsk_input.c **** 		/* USER CODE START TSK_INPUT_TASKBODY_POST */
  98:source\asw/tsk_input.c **** 
  99:source\asw/tsk_input.c **** 		/* USER CODE END TSK_INPUT_TASKBODY_POST */
 100:source\asw/tsk_input.c ****         
 101:source\asw/tsk_input.c ****     }
 102:source\asw/tsk_input.c **** 	
 103:source\asw/tsk_input.c **** 	//Just in Case
 104:source\asw/tsk_input.c **** 	TerminateTask();
 105:source\asw/tsk_input.c **** }
 106:source\asw/tsk_input.c **** 
 107:source\asw/tsk_input.c **** 
 108:source\asw/tsk_input.c **** /*******************************************************************************
 109:source\asw/tsk_input.c ****  * Interrupt Service Routines
 110:source\asw/tsk_input.c ****  *******************************************************************************/
 111:source\asw/tsk_input.c **** 
 112:source\asw/tsk_input.c **** /* USER CODE START TSK_INPUT_ISR */
 113:source\asw/tsk_input.c **** ISR2(isr_Button){
  77              		.loc 1 113 0
  78              		.cfi_startproc
  79              		@ Stack Align: May be called with mis-aligned SP.
  80              		@ args = 0, pretend = 0, frame = 0
  81              		@ frame_needed = 0, uses_anonymous_args = 0
  82 0000 6846     		mov	r0, sp
  83              		.cfi_register 13, 0
  84 0002 20F00701 		bic	r1, r0, #7
  85 0006 8D46     		mov	sp, r1
  86 0008 19B5     		push	{r0, r3, r4, lr}
  87              		.cfi_def_cfa_offset 16
  88              		.cfi_offset 13, -16
  89              		.cfi_offset 3, -12
  90              		.cfi_offset 4, -8
  91              		.cfi_offset 14, -4
  92              	.LVL5:
  93              	.LBB50:
  94              	.LBB51:
  95              		.file 2 "Generated_Source\\PSoC5/ErikaOS_1_cortex_mx_ee_cpu.inc"
   1:Generated_Source\PSoC5/ErikaOS_1_cortex_mx_ee_cpu.inc **** /* ###*B*###
   2:Generated_Source\PSoC5/ErikaOS_1_cortex_mx_ee_cpu.inc ****  * ERIKA Enterprise - a tiny RTOS for small microcontrollers
   3:Generated_Source\PSoC5/ErikaOS_1_cortex_mx_ee_cpu.inc ****  *
   4:Generated_Source\PSoC5/ErikaOS_1_cortex_mx_ee_cpu.inc ****  * Copyright (C) 2002-2011  Evidence Srl
   5:Generated_Source\PSoC5/ErikaOS_1_cortex_mx_ee_cpu.inc ****  *
   6:Generated_Source\PSoC5/ErikaOS_1_cortex_mx_ee_cpu.inc ****  * This file is part of ERIKA Enterprise.
   7:Generated_Source\PSoC5/ErikaOS_1_cortex_mx_ee_cpu.inc ****  *
   8:Generated_Source\PSoC5/ErikaOS_1_cortex_mx_ee_cpu.inc ****  * ERIKA Enterprise is free software; you can redistribute it
   9:Generated_Source\PSoC5/ErikaOS_1_cortex_mx_ee_cpu.inc ****  * and/or modify it under the terms of the GNU General Public License
  10:Generated_Source\PSoC5/ErikaOS_1_cortex_mx_ee_cpu.inc ****  * version 2 as published by the Free Software Foundation, 
  11:Generated_Source\PSoC5/ErikaOS_1_cortex_mx_ee_cpu.inc ****  * (with a special exception described below).
  12:Generated_Source\PSoC5/ErikaOS_1_cortex_mx_ee_cpu.inc ****  *
  13:Generated_Source\PSoC5/ErikaOS_1_cortex_mx_ee_cpu.inc ****  * Linking this code statically or dynamically with other modules is
  14:Generated_Source\PSoC5/ErikaOS_1_cortex_mx_ee_cpu.inc ****  * making a combined work based on this code.  Thus, the terms and
  15:Generated_Source\PSoC5/ErikaOS_1_cortex_mx_ee_cpu.inc ****  * conditions of the GNU General Public License cover the whole
  16:Generated_Source\PSoC5/ErikaOS_1_cortex_mx_ee_cpu.inc ****  * combination.
  17:Generated_Source\PSoC5/ErikaOS_1_cortex_mx_ee_cpu.inc ****  *
  18:Generated_Source\PSoC5/ErikaOS_1_cortex_mx_ee_cpu.inc ****  * As a special exception, the copyright holders of this library give you
  19:Generated_Source\PSoC5/ErikaOS_1_cortex_mx_ee_cpu.inc ****  * permission to link this code with independent modules to produce an
  20:Generated_Source\PSoC5/ErikaOS_1_cortex_mx_ee_cpu.inc ****  * executable, regardless of the license terms of these independent
ARM GAS  C:\Users\zakis\AppData\Local\Temp\cc6x66Sb.s 			page 5


  21:Generated_Source\PSoC5/ErikaOS_1_cortex_mx_ee_cpu.inc ****  * modules, and to copy and distribute the resulting executable under
  22:Generated_Source\PSoC5/ErikaOS_1_cortex_mx_ee_cpu.inc ****  * terms of your choice, provided that you also meet, for each linked
  23:Generated_Source\PSoC5/ErikaOS_1_cortex_mx_ee_cpu.inc ****  * independent module, the terms and conditions of the license of that
  24:Generated_Source\PSoC5/ErikaOS_1_cortex_mx_ee_cpu.inc ****  * module.  An independent module is a module which is not derived from
  25:Generated_Source\PSoC5/ErikaOS_1_cortex_mx_ee_cpu.inc ****  * or based on this library.  If you modify this code, you may extend
  26:Generated_Source\PSoC5/ErikaOS_1_cortex_mx_ee_cpu.inc ****  * this exception to your version of the code, but you are not
  27:Generated_Source\PSoC5/ErikaOS_1_cortex_mx_ee_cpu.inc ****  * obligated to do so.  If you do not wish to do so, delete this
  28:Generated_Source\PSoC5/ErikaOS_1_cortex_mx_ee_cpu.inc ****  * exception statement from your version.
  29:Generated_Source\PSoC5/ErikaOS_1_cortex_mx_ee_cpu.inc ****  *
  30:Generated_Source\PSoC5/ErikaOS_1_cortex_mx_ee_cpu.inc ****  * ERIKA Enterprise is distributed in the hope that it will be
  31:Generated_Source\PSoC5/ErikaOS_1_cortex_mx_ee_cpu.inc ****  * useful, but WITHOUT ANY WARRANTY; without even the implied warranty
  32:Generated_Source\PSoC5/ErikaOS_1_cortex_mx_ee_cpu.inc ****  * of MERCHANTABILITY or FITNESS FOR A PARTICULAR PURPOSE.  See the
  33:Generated_Source\PSoC5/ErikaOS_1_cortex_mx_ee_cpu.inc ****  * GNU General Public License version 2 for more details.
  34:Generated_Source\PSoC5/ErikaOS_1_cortex_mx_ee_cpu.inc ****  *
  35:Generated_Source\PSoC5/ErikaOS_1_cortex_mx_ee_cpu.inc ****  * You should have received a copy of the GNU General Public License
  36:Generated_Source\PSoC5/ErikaOS_1_cortex_mx_ee_cpu.inc ****  * version 2 along with ERIKA Enterprise; if not, write to the
  37:Generated_Source\PSoC5/ErikaOS_1_cortex_mx_ee_cpu.inc ****  * Free Software Foundation, Inc., 51 Franklin Street, Fifth Floor,
  38:Generated_Source\PSoC5/ErikaOS_1_cortex_mx_ee_cpu.inc ****  * Boston, MA 02110-1301 USA.
  39:Generated_Source\PSoC5/ErikaOS_1_cortex_mx_ee_cpu.inc ****  * ###*E*### */
  40:Generated_Source\PSoC5/ErikaOS_1_cortex_mx_ee_cpu.inc **** 
  41:Generated_Source\PSoC5/ErikaOS_1_cortex_mx_ee_cpu.inc **** /** 
  42:Generated_Source\PSoC5/ErikaOS_1_cortex_mx_ee_cpu.inc **** 	@file ee_cpu.h
  43:Generated_Source\PSoC5/ErikaOS_1_cortex_mx_ee_cpu.inc **** 	@brief CPU-dependent part of HAL. Derived from pkg/cpu/pic30/inc/ee_cpu.h
  44:Generated_Source\PSoC5/ErikaOS_1_cortex_mx_ee_cpu.inc **** 	@author Gianluca Franchino
  45:Generated_Source\PSoC5/ErikaOS_1_cortex_mx_ee_cpu.inc **** 	@author Giuseppe Serano
  46:Generated_Source\PSoC5/ErikaOS_1_cortex_mx_ee_cpu.inc **** 	@date 2011
  47:Generated_Source\PSoC5/ErikaOS_1_cortex_mx_ee_cpu.inc **** */ 
  48:Generated_Source\PSoC5/ErikaOS_1_cortex_mx_ee_cpu.inc ****     
  49:Generated_Source\PSoC5/ErikaOS_1_cortex_mx_ee_cpu.inc **** /*
  50:Generated_Source\PSoC5/ErikaOS_1_cortex_mx_ee_cpu.inc ****  * PSoC Port and API Generation
  51:Generated_Source\PSoC5/ErikaOS_1_cortex_mx_ee_cpu.inc ****  * Carlos Fernando Meier Martinez
  52:Generated_Source\PSoC5/ErikaOS_1_cortex_mx_ee_cpu.inc ****  * Hochschule Darmstadt, Germany. 2017.
  53:Generated_Source\PSoC5/ErikaOS_1_cortex_mx_ee_cpu.inc ****  */
  54:Generated_Source\PSoC5/ErikaOS_1_cortex_mx_ee_cpu.inc **** 
  55:Generated_Source\PSoC5/ErikaOS_1_cortex_mx_ee_cpu.inc **** #ifndef __INCLUDE_CORTEX_MX_EE_CPU_H__
  56:Generated_Source\PSoC5/ErikaOS_1_cortex_mx_ee_cpu.inc **** #define __INCLUDE_CORTEX_MX_EE_CPU_H__
  57:Generated_Source\PSoC5/ErikaOS_1_cortex_mx_ee_cpu.inc **** 
  58:Generated_Source\PSoC5/ErikaOS_1_cortex_mx_ee_cpu.inc **** #include "ErikaOS_1_eecfg.inc"
  59:Generated_Source\PSoC5/ErikaOS_1_cortex_mx_ee_cpu.inc **** 
  60:Generated_Source\PSoC5/ErikaOS_1_cortex_mx_ee_cpu.inc **** 
  61:Generated_Source\PSoC5/ErikaOS_1_cortex_mx_ee_cpu.inc **** #ifdef __GNU__
  62:Generated_Source\PSoC5/ErikaOS_1_cortex_mx_ee_cpu.inc **** #include "ErikaOS_1_common_ee_compiler_gcc.inc"
  63:Generated_Source\PSoC5/ErikaOS_1_cortex_mx_ee_cpu.inc **** #endif
  64:Generated_Source\PSoC5/ErikaOS_1_cortex_mx_ee_cpu.inc **** 
  65:Generated_Source\PSoC5/ErikaOS_1_cortex_mx_ee_cpu.inc **** /* Initial stack offset (in words): Used in multistack. */
  66:Generated_Source\PSoC5/ErikaOS_1_cortex_mx_ee_cpu.inc **** #ifndef CORTEX_MX_INIT_TOS_OFFSET
  67:Generated_Source\PSoC5/ErikaOS_1_cortex_mx_ee_cpu.inc **** #define CORTEX_MX_INIT_TOS_OFFSET 10
  68:Generated_Source\PSoC5/ErikaOS_1_cortex_mx_ee_cpu.inc **** #endif
  69:Generated_Source\PSoC5/ErikaOS_1_cortex_mx_ee_cpu.inc **** 
  70:Generated_Source\PSoC5/ErikaOS_1_cortex_mx_ee_cpu.inc **** /*************************************************************************
  71:Generated_Source\PSoC5/ErikaOS_1_cortex_mx_ee_cpu.inc ****  HAL Types and structures
  72:Generated_Source\PSoC5/ErikaOS_1_cortex_mx_ee_cpu.inc ****  *************************************************************************/
  73:Generated_Source\PSoC5/ErikaOS_1_cortex_mx_ee_cpu.inc **** 
  74:Generated_Source\PSoC5/ErikaOS_1_cortex_mx_ee_cpu.inc **** /* Primitive data types */
  75:Generated_Source\PSoC5/ErikaOS_1_cortex_mx_ee_cpu.inc **** #include "ErikaOS_1_common_ee_types.inc"
  76:Generated_Source\PSoC5/ErikaOS_1_cortex_mx_ee_cpu.inc **** 
  77:Generated_Source\PSoC5/ErikaOS_1_cortex_mx_ee_cpu.inc **** typedef EE_UINT32 EE_UREG;
ARM GAS  C:\Users\zakis\AppData\Local\Temp\cc6x66Sb.s 			page 6


  78:Generated_Source\PSoC5/ErikaOS_1_cortex_mx_ee_cpu.inc **** typedef EE_INT32  EE_SREG;
  79:Generated_Source\PSoC5/ErikaOS_1_cortex_mx_ee_cpu.inc **** typedef EE_UINT32 EE_FREG;
  80:Generated_Source\PSoC5/ErikaOS_1_cortex_mx_ee_cpu.inc **** #define EE_UREG_SIZE 4
  81:Generated_Source\PSoC5/ErikaOS_1_cortex_mx_ee_cpu.inc **** 
  82:Generated_Source\PSoC5/ErikaOS_1_cortex_mx_ee_cpu.inc **** /* boolean type */
  83:Generated_Source\PSoC5/ErikaOS_1_cortex_mx_ee_cpu.inc **** #ifndef EE_TYPEBOOL
  84:Generated_Source\PSoC5/ErikaOS_1_cortex_mx_ee_cpu.inc **** typedef EE_UREG EE_TYPEBOOL;
  85:Generated_Source\PSoC5/ErikaOS_1_cortex_mx_ee_cpu.inc **** #endif
  86:Generated_Source\PSoC5/ErikaOS_1_cortex_mx_ee_cpu.inc **** 
  87:Generated_Source\PSoC5/ErikaOS_1_cortex_mx_ee_cpu.inc **** /* boolean true define */
  88:Generated_Source\PSoC5/ErikaOS_1_cortex_mx_ee_cpu.inc **** #ifndef EE_TRUE
  89:Generated_Source\PSoC5/ErikaOS_1_cortex_mx_ee_cpu.inc **** #define EE_TRUE ((EE_TYPEBOOL)1U)
  90:Generated_Source\PSoC5/ErikaOS_1_cortex_mx_ee_cpu.inc **** #endif
  91:Generated_Source\PSoC5/ErikaOS_1_cortex_mx_ee_cpu.inc **** 
  92:Generated_Source\PSoC5/ErikaOS_1_cortex_mx_ee_cpu.inc **** /* boolean false define */
  93:Generated_Source\PSoC5/ErikaOS_1_cortex_mx_ee_cpu.inc **** #ifndef EE_FALSE
  94:Generated_Source\PSoC5/ErikaOS_1_cortex_mx_ee_cpu.inc **** #define EE_FALSE ((EE_TYPEBOOL)0U)
  95:Generated_Source\PSoC5/ErikaOS_1_cortex_mx_ee_cpu.inc **** #endif
  96:Generated_Source\PSoC5/ErikaOS_1_cortex_mx_ee_cpu.inc **** 
  97:Generated_Source\PSoC5/ErikaOS_1_cortex_mx_ee_cpu.inc **** #define	EE_HWREG_PTR		volatile EE_UREG *
  98:Generated_Source\PSoC5/ErikaOS_1_cortex_mx_ee_cpu.inc **** #define	EE_HWREG_ADDR(x)	((EE_HWREG_PTR)(x))
  99:Generated_Source\PSoC5/ErikaOS_1_cortex_mx_ee_cpu.inc **** #define	EE_HWREG(x)		(*EE_HWREG_ADDR(x))
 100:Generated_Source\PSoC5/ErikaOS_1_cortex_mx_ee_cpu.inc **** 
 101:Generated_Source\PSoC5/ErikaOS_1_cortex_mx_ee_cpu.inc **** #ifdef __GNU__
 102:Generated_Source\PSoC5/ErikaOS_1_cortex_mx_ee_cpu.inc **** 
 103:Generated_Source\PSoC5/ErikaOS_1_cortex_mx_ee_cpu.inc **** /* Get current SP */
 104:Generated_Source\PSoC5/ErikaOS_1_cortex_mx_ee_cpu.inc **** __INLINE__ EE_UINT32  __current_sp(void)
 105:Generated_Source\PSoC5/ErikaOS_1_cortex_mx_ee_cpu.inc **** {
 106:Generated_Source\PSoC5/ErikaOS_1_cortex_mx_ee_cpu.inc **** EE_UINT32 temp;
 107:Generated_Source\PSoC5/ErikaOS_1_cortex_mx_ee_cpu.inc **** __ASM ("mov %0, sp" : "=r" (temp) : );
 108:Generated_Source\PSoC5/ErikaOS_1_cortex_mx_ee_cpu.inc **** return temp;
 109:Generated_Source\PSoC5/ErikaOS_1_cortex_mx_ee_cpu.inc **** }
 110:Generated_Source\PSoC5/ErikaOS_1_cortex_mx_ee_cpu.inc **** 
 111:Generated_Source\PSoC5/ErikaOS_1_cortex_mx_ee_cpu.inc **** /* Set a breakpoint */
 112:Generated_Source\PSoC5/ErikaOS_1_cortex_mx_ee_cpu.inc **** #define __breakpoint(value)	__ASM ("bkpt "#value)
 113:Generated_Source\PSoC5/ErikaOS_1_cortex_mx_ee_cpu.inc **** 
 114:Generated_Source\PSoC5/ErikaOS_1_cortex_mx_ee_cpu.inc **** #endif
 115:Generated_Source\PSoC5/ErikaOS_1_cortex_mx_ee_cpu.inc **** 
 116:Generated_Source\PSoC5/ErikaOS_1_cortex_mx_ee_cpu.inc **** /* ISR Priority representation type */
 117:Generated_Source\PSoC5/ErikaOS_1_cortex_mx_ee_cpu.inc **** typedef EE_UREG EE_TYPEISR2PRIO;
 118:Generated_Source\PSoC5/ErikaOS_1_cortex_mx_ee_cpu.inc **** 
 119:Generated_Source\PSoC5/ErikaOS_1_cortex_mx_ee_cpu.inc **** /* Thread IDs */
 120:Generated_Source\PSoC5/ErikaOS_1_cortex_mx_ee_cpu.inc **** typedef EE_INT32 EE_TID;
 121:Generated_Source\PSoC5/ErikaOS_1_cortex_mx_ee_cpu.inc **** 
 122:Generated_Source\PSoC5/ErikaOS_1_cortex_mx_ee_cpu.inc **** /* Thread IDs - unsigned version*/
 123:Generated_Source\PSoC5/ErikaOS_1_cortex_mx_ee_cpu.inc **** typedef EE_UINT32 EE_UTID;
 124:Generated_Source\PSoC5/ErikaOS_1_cortex_mx_ee_cpu.inc **** 
 125:Generated_Source\PSoC5/ErikaOS_1_cortex_mx_ee_cpu.inc **** /* Used by the common layer to decide whether to start a new thread */
 126:Generated_Source\PSoC5/ErikaOS_1_cortex_mx_ee_cpu.inc **** #define TID_IS_STACKED_MARK 0x80000000
 127:Generated_Source\PSoC5/ErikaOS_1_cortex_mx_ee_cpu.inc **** 
 128:Generated_Source\PSoC5/ErikaOS_1_cortex_mx_ee_cpu.inc **** /* EE_TYPEIRQ is currently unused */
 129:Generated_Source\PSoC5/ErikaOS_1_cortex_mx_ee_cpu.inc **** 
 130:Generated_Source\PSoC5/ErikaOS_1_cortex_mx_ee_cpu.inc **** /* XXX: define EE_TIME? */
 131:Generated_Source\PSoC5/ErikaOS_1_cortex_mx_ee_cpu.inc **** 
 132:Generated_Source\PSoC5/ErikaOS_1_cortex_mx_ee_cpu.inc **** /* Use the "standard" implementation */
 133:Generated_Source\PSoC5/ErikaOS_1_cortex_mx_ee_cpu.inc **** #include "ErikaOS_1_common_ee_hal_structs.inc"
 134:Generated_Source\PSoC5/ErikaOS_1_cortex_mx_ee_cpu.inc **** 
ARM GAS  C:\Users\zakis\AppData\Local\Temp\cc6x66Sb.s 			page 7


 135:Generated_Source\PSoC5/ErikaOS_1_cortex_mx_ee_cpu.inc **** /******************************************************************************
 136:Generated_Source\PSoC5/ErikaOS_1_cortex_mx_ee_cpu.inc ****  Application dependent data types
 137:Generated_Source\PSoC5/ErikaOS_1_cortex_mx_ee_cpu.inc ****  ******************************************************************************/
 138:Generated_Source\PSoC5/ErikaOS_1_cortex_mx_ee_cpu.inc **** 
 139:Generated_Source\PSoC5/ErikaOS_1_cortex_mx_ee_cpu.inc **** #ifdef	__HAS_TYPES_H__
 140:Generated_Source\PSoC5/ErikaOS_1_cortex_mx_ee_cpu.inc **** #include	"types.h"
 141:Generated_Source\PSoC5/ErikaOS_1_cortex_mx_ee_cpu.inc **** #endif
 142:Generated_Source\PSoC5/ErikaOS_1_cortex_mx_ee_cpu.inc **** 
 143:Generated_Source\PSoC5/ErikaOS_1_cortex_mx_ee_cpu.inc **** /******************************************************************************
 144:Generated_Source\PSoC5/ErikaOS_1_cortex_mx_ee_cpu.inc ****  CPU Peripherals
 145:Generated_Source\PSoC5/ErikaOS_1_cortex_mx_ee_cpu.inc ****  ******************************************************************************/
 146:Generated_Source\PSoC5/ErikaOS_1_cortex_mx_ee_cpu.inc **** 
 147:Generated_Source\PSoC5/ErikaOS_1_cortex_mx_ee_cpu.inc **** #ifdef __CORTEX_MX__
 148:Generated_Source\PSoC5/ErikaOS_1_cortex_mx_ee_cpu.inc **** #include "ErikaOS_1_cortex_mx_ee_nvic.inc"
 149:Generated_Source\PSoC5/ErikaOS_1_cortex_mx_ee_cpu.inc **** #include "ErikaOS_1_cortex_mx_ee_systick.inc"
 150:Generated_Source\PSoC5/ErikaOS_1_cortex_mx_ee_cpu.inc **** #endif
 151:Generated_Source\PSoC5/ErikaOS_1_cortex_mx_ee_cpu.inc **** 
 152:Generated_Source\PSoC5/ErikaOS_1_cortex_mx_ee_cpu.inc **** /******************************************************************************
 153:Generated_Source\PSoC5/ErikaOS_1_cortex_mx_ee_cpu.inc ****  HAL Variables
 154:Generated_Source\PSoC5/ErikaOS_1_cortex_mx_ee_cpu.inc ****  ******************************************************************************/
 155:Generated_Source\PSoC5/ErikaOS_1_cortex_mx_ee_cpu.inc **** 
 156:Generated_Source\PSoC5/ErikaOS_1_cortex_mx_ee_cpu.inc **** #ifdef __MULTI__
 157:Generated_Source\PSoC5/ErikaOS_1_cortex_mx_ee_cpu.inc **** 
 158:Generated_Source\PSoC5/ErikaOS_1_cortex_mx_ee_cpu.inc **** /* Top-of-stack of each private stack */
 159:Generated_Source\PSoC5/ErikaOS_1_cortex_mx_ee_cpu.inc **** extern struct EE_TOS EE_cortex_mx_system_tos[];
 160:Generated_Source\PSoC5/ErikaOS_1_cortex_mx_ee_cpu.inc **** //#define	EE_std_system_tos EE_cortex_mx_system_tos
 161:Generated_Source\PSoC5/ErikaOS_1_cortex_mx_ee_cpu.inc **** 
 162:Generated_Source\PSoC5/ErikaOS_1_cortex_mx_ee_cpu.inc **** /* Index of the current stack */
 163:Generated_Source\PSoC5/ErikaOS_1_cortex_mx_ee_cpu.inc **** extern EE_UREG EE_cortex_mx_active_tos;
 164:Generated_Source\PSoC5/ErikaOS_1_cortex_mx_ee_cpu.inc **** #define	EE_hal_active_tos EE_cortex_mx_active_tos
 165:Generated_Source\PSoC5/ErikaOS_1_cortex_mx_ee_cpu.inc **** 
 166:Generated_Source\PSoC5/ErikaOS_1_cortex_mx_ee_cpu.inc **** /*extern	EE_UREG EE_pic30_thread_tos[];
 167:Generated_Source\PSoC5/ErikaOS_1_cortex_mx_ee_cpu.inc **** #define	EE_std_thread_tos EE_pic30_thread_tos */
 168:Generated_Source\PSoC5/ErikaOS_1_cortex_mx_ee_cpu.inc **** #endif /* __MULTI__ */
 169:Generated_Source\PSoC5/ErikaOS_1_cortex_mx_ee_cpu.inc **** 
 170:Generated_Source\PSoC5/ErikaOS_1_cortex_mx_ee_cpu.inc **** /*********************************************************************
 171:Generated_Source\PSoC5/ErikaOS_1_cortex_mx_ee_cpu.inc ****  Cortex M0 interrupt disabling/enabling
 172:Generated_Source\PSoC5/ErikaOS_1_cortex_mx_ee_cpu.inc ****  *********************************************************************/
 173:Generated_Source\PSoC5/ErikaOS_1_cortex_mx_ee_cpu.inc **** 
 174:Generated_Source\PSoC5/ErikaOS_1_cortex_mx_ee_cpu.inc **** /* Used to check the value returned by EE_cortex_mx_disableIRQ */
 175:Generated_Source\PSoC5/ErikaOS_1_cortex_mx_ee_cpu.inc **** #define EE_cortex_mx_are_IRQs_enabled(ie) ((ie) ^ 1)
 176:Generated_Source\PSoC5/ErikaOS_1_cortex_mx_ee_cpu.inc **** 
 177:Generated_Source\PSoC5/ErikaOS_1_cortex_mx_ee_cpu.inc **** /**
 178:Generated_Source\PSoC5/ErikaOS_1_cortex_mx_ee_cpu.inc ****  * Enable interrupts
 179:Generated_Source\PSoC5/ErikaOS_1_cortex_mx_ee_cpu.inc ****  */
 180:Generated_Source\PSoC5/ErikaOS_1_cortex_mx_ee_cpu.inc **** __INLINE__ void  EE_cortex_mx_enableIRQ(void)
 181:Generated_Source\PSoC5/ErikaOS_1_cortex_mx_ee_cpu.inc **** {
 182:Generated_Source\PSoC5/ErikaOS_1_cortex_mx_ee_cpu.inc **** #ifdef __IAR__
 183:Generated_Source\PSoC5/ErikaOS_1_cortex_mx_ee_cpu.inc **** 	__ASM ("cpsie i");
 184:Generated_Source\PSoC5/ErikaOS_1_cortex_mx_ee_cpu.inc **** #else	/* __IAR__ */
 185:Generated_Source\PSoC5/ErikaOS_1_cortex_mx_ee_cpu.inc **** #ifdef __CCS__
 186:Generated_Source\PSoC5/ErikaOS_1_cortex_mx_ee_cpu.inc **** 	__ASM ("    cpsie    i\n");
 187:Generated_Source\PSoC5/ErikaOS_1_cortex_mx_ee_cpu.inc **** #else	/* __CCS__ */
 188:Generated_Source\PSoC5/ErikaOS_1_cortex_mx_ee_cpu.inc **** #ifdef __KEIL__
 189:Generated_Source\PSoC5/ErikaOS_1_cortex_mx_ee_cpu.inc **** 	__enable_irq();
 190:Generated_Source\PSoC5/ErikaOS_1_cortex_mx_ee_cpu.inc **** #else	/* __KEIL__ */
 191:Generated_Source\PSoC5/ErikaOS_1_cortex_mx_ee_cpu.inc **** 	__ASM volatile("cpsie i");
ARM GAS  C:\Users\zakis\AppData\Local\Temp\cc6x66Sb.s 			page 8


 192:Generated_Source\PSoC5/ErikaOS_1_cortex_mx_ee_cpu.inc **** #endif	/* !__KEIL__ */
 193:Generated_Source\PSoC5/ErikaOS_1_cortex_mx_ee_cpu.inc **** #endif	/* !__CCS__ */
 194:Generated_Source\PSoC5/ErikaOS_1_cortex_mx_ee_cpu.inc **** #endif	/* !__IAR__ */
 195:Generated_Source\PSoC5/ErikaOS_1_cortex_mx_ee_cpu.inc **** }
 196:Generated_Source\PSoC5/ErikaOS_1_cortex_mx_ee_cpu.inc **** 
 197:Generated_Source\PSoC5/ErikaOS_1_cortex_mx_ee_cpu.inc **** /**
 198:Generated_Source\PSoC5/ErikaOS_1_cortex_mx_ee_cpu.inc ****  * Disable interrupts
 199:Generated_Source\PSoC5/ErikaOS_1_cortex_mx_ee_cpu.inc ****  */
 200:Generated_Source\PSoC5/ErikaOS_1_cortex_mx_ee_cpu.inc **** __INLINE__ void  EE_cortex_mx_disableIRQ(void)
 201:Generated_Source\PSoC5/ErikaOS_1_cortex_mx_ee_cpu.inc **** {
 202:Generated_Source\PSoC5/ErikaOS_1_cortex_mx_ee_cpu.inc **** #ifdef __IAR__
 203:Generated_Source\PSoC5/ErikaOS_1_cortex_mx_ee_cpu.inc **** 	__ASM ("cpsid i");
 204:Generated_Source\PSoC5/ErikaOS_1_cortex_mx_ee_cpu.inc **** #else	/* __IAR__ */
 205:Generated_Source\PSoC5/ErikaOS_1_cortex_mx_ee_cpu.inc **** #ifdef __CCS__
 206:Generated_Source\PSoC5/ErikaOS_1_cortex_mx_ee_cpu.inc **** 	__ASM ("    cpsid    i\n");
 207:Generated_Source\PSoC5/ErikaOS_1_cortex_mx_ee_cpu.inc **** #else	/* __CCS__ */
 208:Generated_Source\PSoC5/ErikaOS_1_cortex_mx_ee_cpu.inc **** #ifdef __KEIL__
 209:Generated_Source\PSoC5/ErikaOS_1_cortex_mx_ee_cpu.inc **** 	__disable_irq();
 210:Generated_Source\PSoC5/ErikaOS_1_cortex_mx_ee_cpu.inc **** #else	/* __KEIL__ */
 211:Generated_Source\PSoC5/ErikaOS_1_cortex_mx_ee_cpu.inc **** 	__ASM volatile("cpsid i");
  96              		.loc 2 211 0
  97              		.syntax unified
  98              	@ 211 "Generated_Source\PSoC5/ErikaOS_1_cortex_mx_ee_cpu.inc" 1
  99 000a 72B6     		cpsid i
 100              	@ 0 "" 2
 101              		.thumb
 102              		.syntax unified
 103              	.LBE51:
 104              	.LBE50:
 105              	.LBB52:
 106              	.LBB53:
 212:Generated_Source\PSoC5/ErikaOS_1_cortex_mx_ee_cpu.inc **** #endif	/* !__KEIL__ */
 213:Generated_Source\PSoC5/ErikaOS_1_cortex_mx_ee_cpu.inc **** #endif	/* !__CCS__ */
 214:Generated_Source\PSoC5/ErikaOS_1_cortex_mx_ee_cpu.inc **** #endif	/* !__IAR__ */
 215:Generated_Source\PSoC5/ErikaOS_1_cortex_mx_ee_cpu.inc **** }
 216:Generated_Source\PSoC5/ErikaOS_1_cortex_mx_ee_cpu.inc **** 
 217:Generated_Source\PSoC5/ErikaOS_1_cortex_mx_ee_cpu.inc **** /**
 218:Generated_Source\PSoC5/ErikaOS_1_cortex_mx_ee_cpu.inc ****  * Resume interrupts
 219:Generated_Source\PSoC5/ErikaOS_1_cortex_mx_ee_cpu.inc ****  */
 220:Generated_Source\PSoC5/ErikaOS_1_cortex_mx_ee_cpu.inc **** __INLINE__ void  EE_cortex_mx_resumeIRQ(EE_FREG f)
 221:Generated_Source\PSoC5/ErikaOS_1_cortex_mx_ee_cpu.inc **** {
 222:Generated_Source\PSoC5/ErikaOS_1_cortex_mx_ee_cpu.inc **** #ifdef __IAR__
 223:Generated_Source\PSoC5/ErikaOS_1_cortex_mx_ee_cpu.inc **** 	__set_PRIMASK(f);
 224:Generated_Source\PSoC5/ErikaOS_1_cortex_mx_ee_cpu.inc **** #else	/* __IAR__ */
 225:Generated_Source\PSoC5/ErikaOS_1_cortex_mx_ee_cpu.inc **** #ifdef __CCS__
 226:Generated_Source\PSoC5/ErikaOS_1_cortex_mx_ee_cpu.inc **** 	__ASM ("    msr    primask, r0\n");
 227:Generated_Source\PSoC5/ErikaOS_1_cortex_mx_ee_cpu.inc **** #else	/* __CCS__ */
 228:Generated_Source\PSoC5/ErikaOS_1_cortex_mx_ee_cpu.inc **** #ifdef __KEIL__
 229:Generated_Source\PSoC5/ErikaOS_1_cortex_mx_ee_cpu.inc **** 	register EE_FREG PRIMASK __ASM("primask");
 230:Generated_Source\PSoC5/ErikaOS_1_cortex_mx_ee_cpu.inc **** 	PRIMASK = f;
 231:Generated_Source\PSoC5/ErikaOS_1_cortex_mx_ee_cpu.inc **** #else	/* __KEIL__ */
 232:Generated_Source\PSoC5/ErikaOS_1_cortex_mx_ee_cpu.inc **** 	__ASM volatile("msr primask, %0" :: "r" (f));
 233:Generated_Source\PSoC5/ErikaOS_1_cortex_mx_ee_cpu.inc **** #endif	/* !__KEIL__ */
 234:Generated_Source\PSoC5/ErikaOS_1_cortex_mx_ee_cpu.inc **** #endif	/* !__CCS__ */
 235:Generated_Source\PSoC5/ErikaOS_1_cortex_mx_ee_cpu.inc **** #endif	/* !__IAR__ */
 236:Generated_Source\PSoC5/ErikaOS_1_cortex_mx_ee_cpu.inc **** }
 237:Generated_Source\PSoC5/ErikaOS_1_cortex_mx_ee_cpu.inc **** 
ARM GAS  C:\Users\zakis\AppData\Local\Temp\cc6x66Sb.s 			page 9


 238:Generated_Source\PSoC5/ErikaOS_1_cortex_mx_ee_cpu.inc **** /**
 239:Generated_Source\PSoC5/ErikaOS_1_cortex_mx_ee_cpu.inc ****  * Suspend interrupts
 240:Generated_Source\PSoC5/ErikaOS_1_cortex_mx_ee_cpu.inc ****  */
 241:Generated_Source\PSoC5/ErikaOS_1_cortex_mx_ee_cpu.inc **** __INLINE__ EE_FREG  EE_cortex_mx_suspendIRQ(void)
 242:Generated_Source\PSoC5/ErikaOS_1_cortex_mx_ee_cpu.inc **** {
 243:Generated_Source\PSoC5/ErikaOS_1_cortex_mx_ee_cpu.inc **** #ifndef __CCS__
 244:Generated_Source\PSoC5/ErikaOS_1_cortex_mx_ee_cpu.inc **** 	EE_FREG istat;
 245:Generated_Source\PSoC5/ErikaOS_1_cortex_mx_ee_cpu.inc **** #endif
 246:Generated_Source\PSoC5/ErikaOS_1_cortex_mx_ee_cpu.inc **** #ifdef __IAR__
 247:Generated_Source\PSoC5/ErikaOS_1_cortex_mx_ee_cpu.inc **** 	 istat = __get_PRIMASK();
 248:Generated_Source\PSoC5/ErikaOS_1_cortex_mx_ee_cpu.inc **** 	__ASM ("cpsid i");
 249:Generated_Source\PSoC5/ErikaOS_1_cortex_mx_ee_cpu.inc **** #else	/* __IAR__ */
 250:Generated_Source\PSoC5/ErikaOS_1_cortex_mx_ee_cpu.inc **** #ifdef __CCS__
 251:Generated_Source\PSoC5/ErikaOS_1_cortex_mx_ee_cpu.inc **** 	__ASM ("    mrs     r0, primask\n"
 252:Generated_Source\PSoC5/ErikaOS_1_cortex_mx_ee_cpu.inc **** 	       "    cpsid   i\n"
 253:Generated_Source\PSoC5/ErikaOS_1_cortex_mx_ee_cpu.inc **** 	       "    bx      lr\n");
 254:Generated_Source\PSoC5/ErikaOS_1_cortex_mx_ee_cpu.inc **** #else	/* __CCS__ */
 255:Generated_Source\PSoC5/ErikaOS_1_cortex_mx_ee_cpu.inc **** #ifdef __KEIL__
 256:Generated_Source\PSoC5/ErikaOS_1_cortex_mx_ee_cpu.inc **** 	register EE_FREG PRIMASK __ASM("primask");
 257:Generated_Source\PSoC5/ErikaOS_1_cortex_mx_ee_cpu.inc **** 	istat = PRIMASK;
 258:Generated_Source\PSoC5/ErikaOS_1_cortex_mx_ee_cpu.inc **** 	__disable_irq();
 259:Generated_Source\PSoC5/ErikaOS_1_cortex_mx_ee_cpu.inc **** #else	/* __KEIL__ */
 260:Generated_Source\PSoC5/ErikaOS_1_cortex_mx_ee_cpu.inc **** 	__ASM volatile ("mrs %0, primask" : "=r" (istat) );
 261:Generated_Source\PSoC5/ErikaOS_1_cortex_mx_ee_cpu.inc **** 	__ASM volatile ("cpsid i");
 262:Generated_Source\PSoC5/ErikaOS_1_cortex_mx_ee_cpu.inc **** #endif	/* !__KEIL__ */
 263:Generated_Source\PSoC5/ErikaOS_1_cortex_mx_ee_cpu.inc **** #endif	/* !__CCS__ */
 264:Generated_Source\PSoC5/ErikaOS_1_cortex_mx_ee_cpu.inc **** #endif	/* !__IAR__ */
 265:Generated_Source\PSoC5/ErikaOS_1_cortex_mx_ee_cpu.inc **** #ifdef __CCS__
 266:Generated_Source\PSoC5/ErikaOS_1_cortex_mx_ee_cpu.inc **** 	return 0;
 267:Generated_Source\PSoC5/ErikaOS_1_cortex_mx_ee_cpu.inc **** #else
 268:Generated_Source\PSoC5/ErikaOS_1_cortex_mx_ee_cpu.inc **** 	return istat;
 269:Generated_Source\PSoC5/ErikaOS_1_cortex_mx_ee_cpu.inc **** #endif
 270:Generated_Source\PSoC5/ErikaOS_1_cortex_mx_ee_cpu.inc **** }
 271:Generated_Source\PSoC5/ErikaOS_1_cortex_mx_ee_cpu.inc **** 
 272:Generated_Source\PSoC5/ErikaOS_1_cortex_mx_ee_cpu.inc **** /**
 273:Generated_Source\PSoC5/ErikaOS_1_cortex_mx_ee_cpu.inc ****  * Return true (not 0) if IRQs are enabled, 0 (false) if IRQ are disabled.
 274:Generated_Source\PSoC5/ErikaOS_1_cortex_mx_ee_cpu.inc ****  */
 275:Generated_Source\PSoC5/ErikaOS_1_cortex_mx_ee_cpu.inc **** __INLINE__ EE_UINT32  EE_cortex_mx_get_IRQ_enabled(void)
 276:Generated_Source\PSoC5/ErikaOS_1_cortex_mx_ee_cpu.inc **** {
 277:Generated_Source\PSoC5/ErikaOS_1_cortex_mx_ee_cpu.inc **** #ifndef __CCS__
 278:Generated_Source\PSoC5/ErikaOS_1_cortex_mx_ee_cpu.inc **** 	EE_UREG ie;
 279:Generated_Source\PSoC5/ErikaOS_1_cortex_mx_ee_cpu.inc **** #endif
 280:Generated_Source\PSoC5/ErikaOS_1_cortex_mx_ee_cpu.inc **** #ifdef __IAR__
 281:Generated_Source\PSoC5/ErikaOS_1_cortex_mx_ee_cpu.inc **** 	ie = __get_PRIMASK();
 282:Generated_Source\PSoC5/ErikaOS_1_cortex_mx_ee_cpu.inc **** #else	/* __IAR__ */
 283:Generated_Source\PSoC5/ErikaOS_1_cortex_mx_ee_cpu.inc **** #ifdef __CCS__
 284:Generated_Source\PSoC5/ErikaOS_1_cortex_mx_ee_cpu.inc **** 	__ASM ("    MRS     r0, PRIMASK\n"
 285:Generated_Source\PSoC5/ErikaOS_1_cortex_mx_ee_cpu.inc **** 	       "    EOR     r0, #1\n"
 286:Generated_Source\PSoC5/ErikaOS_1_cortex_mx_ee_cpu.inc **** 	       "    bx      lr\n");
 287:Generated_Source\PSoC5/ErikaOS_1_cortex_mx_ee_cpu.inc **** #else	/* __CCS__ */
 288:Generated_Source\PSoC5/ErikaOS_1_cortex_mx_ee_cpu.inc **** #ifdef __KEIL__
 289:Generated_Source\PSoC5/ErikaOS_1_cortex_mx_ee_cpu.inc **** 	register EE_FREG PRIMASK __ASM("primask");
 290:Generated_Source\PSoC5/ErikaOS_1_cortex_mx_ee_cpu.inc **** 	ie = PRIMASK;
 291:Generated_Source\PSoC5/ErikaOS_1_cortex_mx_ee_cpu.inc **** #else	/* __KEIL__ */
 292:Generated_Source\PSoC5/ErikaOS_1_cortex_mx_ee_cpu.inc **** 	__ASM volatile ("MRS %0, primask" : "=r" (ie) );
 293:Generated_Source\PSoC5/ErikaOS_1_cortex_mx_ee_cpu.inc **** #endif	/* !__KEIL__ */
 294:Generated_Source\PSoC5/ErikaOS_1_cortex_mx_ee_cpu.inc **** #endif	/* !__CCS__ */
ARM GAS  C:\Users\zakis\AppData\Local\Temp\cc6x66Sb.s 			page 10


 295:Generated_Source\PSoC5/ErikaOS_1_cortex_mx_ee_cpu.inc **** #endif	/* !__IAR__ */
 296:Generated_Source\PSoC5/ErikaOS_1_cortex_mx_ee_cpu.inc **** #ifdef __CCS__
 297:Generated_Source\PSoC5/ErikaOS_1_cortex_mx_ee_cpu.inc **** 	return 0;
 298:Generated_Source\PSoC5/ErikaOS_1_cortex_mx_ee_cpu.inc **** #else
 299:Generated_Source\PSoC5/ErikaOS_1_cortex_mx_ee_cpu.inc **** 	return EE_cortex_mx_are_IRQs_enabled(ie);
 300:Generated_Source\PSoC5/ErikaOS_1_cortex_mx_ee_cpu.inc **** #endif
 301:Generated_Source\PSoC5/ErikaOS_1_cortex_mx_ee_cpu.inc **** }
 302:Generated_Source\PSoC5/ErikaOS_1_cortex_mx_ee_cpu.inc **** 
 303:Generated_Source\PSoC5/ErikaOS_1_cortex_mx_ee_cpu.inc **** __INLINE__ EE_TYPEISR2PRIO  EE_cortex_mx_get_int_prio(void)
 304:Generated_Source\PSoC5/ErikaOS_1_cortex_mx_ee_cpu.inc **** {
 305:Generated_Source\PSoC5/ErikaOS_1_cortex_mx_ee_cpu.inc **** #ifdef __CORTEX_M4__
 306:Generated_Source\PSoC5/ErikaOS_1_cortex_mx_ee_cpu.inc **** 
 307:Generated_Source\PSoC5/ErikaOS_1_cortex_mx_ee_cpu.inc **** #ifndef __CCS__
 308:Generated_Source\PSoC5/ErikaOS_1_cortex_mx_ee_cpu.inc **** 	register EE_UREG prio;
 309:Generated_Source\PSoC5/ErikaOS_1_cortex_mx_ee_cpu.inc **** #ifdef	__KEIL__
 310:Generated_Source\PSoC5/ErikaOS_1_cortex_mx_ee_cpu.inc **** 	register EE_FREG BASEPRI __ASM("basepri");
 311:Generated_Source\PSoC5/ErikaOS_1_cortex_mx_ee_cpu.inc **** #endif
 312:Generated_Source\PSoC5/ErikaOS_1_cortex_mx_ee_cpu.inc **** 
 313:Generated_Source\PSoC5/ErikaOS_1_cortex_mx_ee_cpu.inc **** #endif
 314:Generated_Source\PSoC5/ErikaOS_1_cortex_mx_ee_cpu.inc **** 
 315:Generated_Source\PSoC5/ErikaOS_1_cortex_mx_ee_cpu.inc **** #ifdef __CCS__
 316:Generated_Source\PSoC5/ErikaOS_1_cortex_mx_ee_cpu.inc **** 	/* NVIC_INT_PRI_S = 5 */
 317:Generated_Source\PSoC5/ErikaOS_1_cortex_mx_ee_cpu.inc **** 	__ASM ("    MRS     R0, BASEPRI\n"
 318:Generated_Source\PSoC5/ErikaOS_1_cortex_mx_ee_cpu.inc **** 	       "    ASR     R0, #5\n"
 319:Generated_Source\PSoC5/ErikaOS_1_cortex_mx_ee_cpu.inc **** 	       "    BLX     LR\n");
 320:Generated_Source\PSoC5/ErikaOS_1_cortex_mx_ee_cpu.inc **** #else	/* __CCS__ */
 321:Generated_Source\PSoC5/ErikaOS_1_cortex_mx_ee_cpu.inc **** #ifdef __KEIL__
 322:Generated_Source\PSoC5/ErikaOS_1_cortex_mx_ee_cpu.inc **** 	prio = BASEPRI;
 323:Generated_Source\PSoC5/ErikaOS_1_cortex_mx_ee_cpu.inc **** #else	/* __KEIL__ */
 324:Generated_Source\PSoC5/ErikaOS_1_cortex_mx_ee_cpu.inc **** #ifdef __GNU__
 325:Generated_Source\PSoC5/ErikaOS_1_cortex_mx_ee_cpu.inc **** 	__ASM volatile("MRS %0, BASEPRI" : "=r" (prio) :: );
 107              		.loc 2 325 0
 108              		.syntax unified
 109              	@ 325 "Generated_Source\PSoC5/ErikaOS_1_cortex_mx_ee_cpu.inc" 1
 110 000c EFF31184 		MRS r4, BASEPRI
 111              	@ 0 "" 2
 112              	.LVL6:
 113              		.thumb
 114              		.syntax unified
 115              	.LBE53:
 116              	.LBE52:
 117              	.LBB54:
 118              	.LBB55:
 326:Generated_Source\PSoC5/ErikaOS_1_cortex_mx_ee_cpu.inc **** #else
 327:Generated_Source\PSoC5/ErikaOS_1_cortex_mx_ee_cpu.inc **** 	__ASM volatile("MRS %0, BASEPRI" :: "=r" (prio));
 328:Generated_Source\PSoC5/ErikaOS_1_cortex_mx_ee_cpu.inc **** #endif	/* !__GNU__ */
 329:Generated_Source\PSoC5/ErikaOS_1_cortex_mx_ee_cpu.inc **** #endif	/* !__KEIL__ */
 330:Generated_Source\PSoC5/ErikaOS_1_cortex_mx_ee_cpu.inc **** #endif	/* !__CCS__ */
 331:Generated_Source\PSoC5/ErikaOS_1_cortex_mx_ee_cpu.inc **** 
 332:Generated_Source\PSoC5/ErikaOS_1_cortex_mx_ee_cpu.inc **** #ifdef __CCS__
 333:Generated_Source\PSoC5/ErikaOS_1_cortex_mx_ee_cpu.inc **** 	return 0;
 334:Generated_Source\PSoC5/ErikaOS_1_cortex_mx_ee_cpu.inc **** #else
 335:Generated_Source\PSoC5/ErikaOS_1_cortex_mx_ee_cpu.inc **** 	return prio >> NVIC_INT_PRI_S;
 336:Generated_Source\PSoC5/ErikaOS_1_cortex_mx_ee_cpu.inc **** #endif
 337:Generated_Source\PSoC5/ErikaOS_1_cortex_mx_ee_cpu.inc **** 
 338:Generated_Source\PSoC5/ErikaOS_1_cortex_mx_ee_cpu.inc **** #else	/* __CORTEX_M4__ */
 339:Generated_Source\PSoC5/ErikaOS_1_cortex_mx_ee_cpu.inc **** 	return 0;
ARM GAS  C:\Users\zakis\AppData\Local\Temp\cc6x66Sb.s 			page 11


 340:Generated_Source\PSoC5/ErikaOS_1_cortex_mx_ee_cpu.inc **** #endif	/* !__CORTEX_M4__ */
 341:Generated_Source\PSoC5/ErikaOS_1_cortex_mx_ee_cpu.inc **** }
 342:Generated_Source\PSoC5/ErikaOS_1_cortex_mx_ee_cpu.inc **** 
 343:Generated_Source\PSoC5/ErikaOS_1_cortex_mx_ee_cpu.inc **** __INLINE__ void  EE_cortex_mx_set_int_prio(
 344:Generated_Source\PSoC5/ErikaOS_1_cortex_mx_ee_cpu.inc ****   EE_TYPEISR2PRIO prio
 345:Generated_Source\PSoC5/ErikaOS_1_cortex_mx_ee_cpu.inc **** )
 346:Generated_Source\PSoC5/ErikaOS_1_cortex_mx_ee_cpu.inc **** {
 347:Generated_Source\PSoC5/ErikaOS_1_cortex_mx_ee_cpu.inc **** #ifdef __CORTEX_M4__
 348:Generated_Source\PSoC5/ErikaOS_1_cortex_mx_ee_cpu.inc **** #ifdef __CCS__
 349:Generated_Source\PSoC5/ErikaOS_1_cortex_mx_ee_cpu.inc **** 	/* NVIC_INT_PRI_S = 5 */
 350:Generated_Source\PSoC5/ErikaOS_1_cortex_mx_ee_cpu.inc **** 	__ASM ("    LSL    R0, #5\n"
 351:Generated_Source\PSoC5/ErikaOS_1_cortex_mx_ee_cpu.inc **** 	       "    MSR    BASEPRI, R0\n");
 352:Generated_Source\PSoC5/ErikaOS_1_cortex_mx_ee_cpu.inc **** #else	/* __CCS__ */
 353:Generated_Source\PSoC5/ErikaOS_1_cortex_mx_ee_cpu.inc **** #ifdef __KEIL__
 354:Generated_Source\PSoC5/ErikaOS_1_cortex_mx_ee_cpu.inc **** 	register EE_FREG BASEPRI __ASM("basepri");
 355:Generated_Source\PSoC5/ErikaOS_1_cortex_mx_ee_cpu.inc **** 	BASEPRI = (prio << NVIC_INT_PRI_S);
 356:Generated_Source\PSoC5/ErikaOS_1_cortex_mx_ee_cpu.inc **** #else	/* __KEIL__ */
 357:Generated_Source\PSoC5/ErikaOS_1_cortex_mx_ee_cpu.inc **** #ifdef __GNU__
 358:Generated_Source\PSoC5/ErikaOS_1_cortex_mx_ee_cpu.inc **** 	__ASM volatile("MSR BASEPRI, %0" :: "r" (prio << NVIC_INT_PRI_S) : );
 359:Generated_Source\PSoC5/ErikaOS_1_cortex_mx_ee_cpu.inc **** #else
 360:Generated_Source\PSoC5/ErikaOS_1_cortex_mx_ee_cpu.inc **** 	__ASM volatile("MSR BASEPRI, %0" :: "r" (prio << NVIC_INT_PRI_S));
 361:Generated_Source\PSoC5/ErikaOS_1_cortex_mx_ee_cpu.inc **** #endif	/* !__GNU__ */
 362:Generated_Source\PSoC5/ErikaOS_1_cortex_mx_ee_cpu.inc **** #endif	/* !__KEIL__ */
 363:Generated_Source\PSoC5/ErikaOS_1_cortex_mx_ee_cpu.inc **** #endif	/* !__CCS__ */
 364:Generated_Source\PSoC5/ErikaOS_1_cortex_mx_ee_cpu.inc **** #endif	/* __CORTEX_M4__ */
 365:Generated_Source\PSoC5/ErikaOS_1_cortex_mx_ee_cpu.inc **** }
 366:Generated_Source\PSoC5/ErikaOS_1_cortex_mx_ee_cpu.inc **** 
 367:Generated_Source\PSoC5/ErikaOS_1_cortex_mx_ee_cpu.inc **** __INLINE__ EE_TYPEISR2PRIO  EE_cortex_mx_get_isr_prio(
 368:Generated_Source\PSoC5/ErikaOS_1_cortex_mx_ee_cpu.inc ****   void
 369:Generated_Source\PSoC5/ErikaOS_1_cortex_mx_ee_cpu.inc **** )
 370:Generated_Source\PSoC5/ErikaOS_1_cortex_mx_ee_cpu.inc **** {
 371:Generated_Source\PSoC5/ErikaOS_1_cortex_mx_ee_cpu.inc **** #ifdef __CORTEX_M4__
 372:Generated_Source\PSoC5/ErikaOS_1_cortex_mx_ee_cpu.inc ****   register EE_UREG vectact = NVIC_INT_CTRL_R & NVIC_INT_CTRL_VEC_ACT_M;
 119              		.loc 2 372 0
 120 0010 1D4B     		ldr	r3, .L12
 121 0012 1B68     		ldr	r3, [r3]
 122 0014 DBB2     		uxtb	r3, r3
 123              	.LVL7:
 373:Generated_Source\PSoC5/ErikaOS_1_cortex_mx_ee_cpu.inc ****   register EE_TYPEISR2PRIO prio = 0;
 374:Generated_Source\PSoC5/ErikaOS_1_cortex_mx_ee_cpu.inc **** 
 375:Generated_Source\PSoC5/ErikaOS_1_cortex_mx_ee_cpu.inc ****   if (vectact > EE_CORTEX_MX_SYSTICK_EXC_NUM) {
 124              		.loc 2 375 0
 125 0016 0F2B     		cmp	r3, #15
 126 0018 10D9     		bls	.L7
 376:Generated_Source\PSoC5/ErikaOS_1_cortex_mx_ee_cpu.inc ****     vectact -= EE_CORTEX_MX_SYSTICK_EXC_NUM + 1;
 127              		.loc 2 376 0
 128 001a 103B     		subs	r3, r3, #16
 129              	.LVL8:
 377:Generated_Source\PSoC5/ErikaOS_1_cortex_mx_ee_cpu.inc ****     prio = NVIC_GET_PRI(vectact);
 130              		.loc 2 377 0
 131 001c 23F00302 		bic	r2, r3, #3
 132 0020 02F16042 		add	r2, r2, #-536870912
 133 0024 02F56442 		add	r2, r2, #58368
 134 0028 1168     		ldr	r1, [r2]
 135 002a DB00     		lsls	r3, r3, #3
 136              	.LVL9:
 137 002c 03F01803 		and	r3, r3, #24
ARM GAS  C:\Users\zakis\AppData\Local\Temp\cc6x66Sb.s 			page 12


 138 0030 E022     		movs	r2, #224
 139 0032 9A40     		lsls	r2, r2, r3
 140 0034 0A40     		ands	r2, r2, r1
 141 0036 22FA03F3 		lsr	r3, r2, r3
 142              	.LVL10:
 143 003a 06E0     		b	.L8
 144              	.LVL11:
 145              	.L7:
 378:Generated_Source\PSoC5/ErikaOS_1_cortex_mx_ee_cpu.inc ****   }
 379:Generated_Source\PSoC5/ErikaOS_1_cortex_mx_ee_cpu.inc **** #ifdef	__USE_SYSTICK__
 380:Generated_Source\PSoC5/ErikaOS_1_cortex_mx_ee_cpu.inc ****   else if (vectact == EE_CORTEX_MX_SYSTICK_EXC_NUM) {
 146              		.loc 2 380 0
 147 003c 0F2B     		cmp	r3, #15
 148 003e 03D1     		bne	.L11
 381:Generated_Source\PSoC5/ErikaOS_1_cortex_mx_ee_cpu.inc ****     prio = NVIC_SYS_PRI3_R >> NVIC_SYS_PRI3_TICK_S;
 149              		.loc 2 381 0
 150 0040 124B     		ldr	r3, .L12+4
 151              	.LVL12:
 152 0042 1B68     		ldr	r3, [r3]
 153 0044 1B0E     		lsrs	r3, r3, #24
 154              	.LVL13:
 155 0046 00E0     		b	.L8
 156              	.LVL14:
 157              	.L11:
 373:Generated_Source\PSoC5/ErikaOS_1_cortex_mx_ee_cpu.inc **** 
 158              		.loc 2 373 0
 159 0048 0023     		movs	r3, #0
 160              	.LVL15:
 161              	.L8:
 162              	.LBE55:
 163              	.LBE54:
 164              	.LBB56:
 165              	.LBB57:
 358:Generated_Source\PSoC5/ErikaOS_1_cortex_mx_ee_cpu.inc **** #else
 166              		.loc 2 358 0
 167              		.syntax unified
 168              	@ 358 "Generated_Source\PSoC5/ErikaOS_1_cortex_mx_ee_cpu.inc" 1
 169 004a 83F31188 		MSR BASEPRI, r3
 170              	@ 0 "" 2
 171              		.thumb
 172              		.syntax unified
 173              	.LBE57:
 174              	.LBE56:
 175              	.LBB58:
 176              	.LBB59:
 177              		.file 3 "Generated_Source\\PSoC5/ErikaOS_1_common_ee_irqstub.inc"
   1:Generated_Source\PSoC5/ErikaOS_1_common_ee_irqstub.inc **** /* ###*B*###
   2:Generated_Source\PSoC5/ErikaOS_1_common_ee_irqstub.inc ****  * ERIKA Enterprise - a tiny RTOS for small microcontrollers
   3:Generated_Source\PSoC5/ErikaOS_1_common_ee_irqstub.inc ****  *
   4:Generated_Source\PSoC5/ErikaOS_1_common_ee_irqstub.inc ****  * Copyright (C) 2002-2010  Evidence Srl
   5:Generated_Source\PSoC5/ErikaOS_1_common_ee_irqstub.inc ****  *
   6:Generated_Source\PSoC5/ErikaOS_1_common_ee_irqstub.inc ****  * This file is part of ERIKA Enterprise.
   7:Generated_Source\PSoC5/ErikaOS_1_common_ee_irqstub.inc ****  *
   8:Generated_Source\PSoC5/ErikaOS_1_common_ee_irqstub.inc ****  * ERIKA Enterprise is free software; you can redistribute it
   9:Generated_Source\PSoC5/ErikaOS_1_common_ee_irqstub.inc ****  * and/or modify it under the terms of the GNU General Public License
  10:Generated_Source\PSoC5/ErikaOS_1_common_ee_irqstub.inc ****  * version 2 as published by the Free Software Foundation,
  11:Generated_Source\PSoC5/ErikaOS_1_common_ee_irqstub.inc ****  * (with a special exception described below).
ARM GAS  C:\Users\zakis\AppData\Local\Temp\cc6x66Sb.s 			page 13


  12:Generated_Source\PSoC5/ErikaOS_1_common_ee_irqstub.inc ****  *
  13:Generated_Source\PSoC5/ErikaOS_1_common_ee_irqstub.inc ****  * Linking this code statically or dynamically with other modules is
  14:Generated_Source\PSoC5/ErikaOS_1_common_ee_irqstub.inc ****  * making a combined work based on this code.  Thus, the terms and
  15:Generated_Source\PSoC5/ErikaOS_1_common_ee_irqstub.inc ****  * conditions of the GNU General Public License cover the whole
  16:Generated_Source\PSoC5/ErikaOS_1_common_ee_irqstub.inc ****  * combination.
  17:Generated_Source\PSoC5/ErikaOS_1_common_ee_irqstub.inc ****  *
  18:Generated_Source\PSoC5/ErikaOS_1_common_ee_irqstub.inc ****  * As a special exception, the copyright holders of this library give you
  19:Generated_Source\PSoC5/ErikaOS_1_common_ee_irqstub.inc ****  * permission to link this code with independent modules to produce an
  20:Generated_Source\PSoC5/ErikaOS_1_common_ee_irqstub.inc ****  * executable, regardless of the license terms of these independent
  21:Generated_Source\PSoC5/ErikaOS_1_common_ee_irqstub.inc ****  * modules, and to copy and distribute the resulting executable under
  22:Generated_Source\PSoC5/ErikaOS_1_common_ee_irqstub.inc ****  * terms of your choice, provided that you also meet, for each linked
  23:Generated_Source\PSoC5/ErikaOS_1_common_ee_irqstub.inc ****  * independent module, the terms and conditions of the license of that
  24:Generated_Source\PSoC5/ErikaOS_1_common_ee_irqstub.inc ****  * module.  An independent module is a module which is not derived from
  25:Generated_Source\PSoC5/ErikaOS_1_common_ee_irqstub.inc ****  * or based on this library.  If you modify this code, you may extend
  26:Generated_Source\PSoC5/ErikaOS_1_common_ee_irqstub.inc ****  * this exception to your version of the code, but you are not
  27:Generated_Source\PSoC5/ErikaOS_1_common_ee_irqstub.inc ****  * obligated to do so.  If you do not wish to do so, delete this
  28:Generated_Source\PSoC5/ErikaOS_1_common_ee_irqstub.inc ****  * exception statement from your version.
  29:Generated_Source\PSoC5/ErikaOS_1_common_ee_irqstub.inc ****  *
  30:Generated_Source\PSoC5/ErikaOS_1_common_ee_irqstub.inc ****  * ERIKA Enterprise is distributed in the hope that it will be
  31:Generated_Source\PSoC5/ErikaOS_1_common_ee_irqstub.inc ****  * useful, but WITHOUT ANY WARRANTY; without even the implied warranty
  32:Generated_Source\PSoC5/ErikaOS_1_common_ee_irqstub.inc ****  * of MERCHANTABILITY or FITNESS FOR A PARTICULAR PURPOSE.  See the
  33:Generated_Source\PSoC5/ErikaOS_1_common_ee_irqstub.inc ****  * GNU General Public License version 2 for more details.
  34:Generated_Source\PSoC5/ErikaOS_1_common_ee_irqstub.inc ****  *
  35:Generated_Source\PSoC5/ErikaOS_1_common_ee_irqstub.inc ****  * You should have received a copy of the GNU General Public License
  36:Generated_Source\PSoC5/ErikaOS_1_common_ee_irqstub.inc ****  * version 2 along with ERIKA Enterprise; if not, write to the
  37:Generated_Source\PSoC5/ErikaOS_1_common_ee_irqstub.inc ****  * Free Software Foundation, Inc., 51 Franklin Street, Fifth Floor,
  38:Generated_Source\PSoC5/ErikaOS_1_common_ee_irqstub.inc ****  * Boston, MA 02110-1301 USA.
  39:Generated_Source\PSoC5/ErikaOS_1_common_ee_irqstub.inc ****  * ###*E*### */
  40:Generated_Source\PSoC5/ErikaOS_1_common_ee_irqstub.inc **** 
  41:Generated_Source\PSoC5/ErikaOS_1_common_ee_irqstub.inc **** /*
  42:Generated_Source\PSoC5/ErikaOS_1_common_ee_irqstub.inc ****  * Some IRQ-related stuff.
  43:Generated_Source\PSoC5/ErikaOS_1_common_ee_irqstub.inc ****  * Author: 2009-2010,  Bernardo  Dal Seno
  44:Generated_Source\PSoC5/ErikaOS_1_common_ee_irqstub.inc ****  */
  45:Generated_Source\PSoC5/ErikaOS_1_common_ee_irqstub.inc **** 
  46:Generated_Source\PSoC5/ErikaOS_1_common_ee_irqstub.inc **** /*
  47:Generated_Source\PSoC5/ErikaOS_1_common_ee_irqstub.inc ****  * PSoC Port and API Generation
  48:Generated_Source\PSoC5/ErikaOS_1_common_ee_irqstub.inc ****  * Carlos Fernando Meier Martinez
  49:Generated_Source\PSoC5/ErikaOS_1_common_ee_irqstub.inc ****  * Hochschule Darmstadt, Germany. 2017.
  50:Generated_Source\PSoC5/ErikaOS_1_common_ee_irqstub.inc ****  */
  51:Generated_Source\PSoC5/ErikaOS_1_common_ee_irqstub.inc **** 
  52:Generated_Source\PSoC5/ErikaOS_1_common_ee_irqstub.inc **** /*******************************************************************************
  53:Generated_Source\PSoC5/ErikaOS_1_common_ee_irqstub.inc ****  *                        !!!WARNING!!!
  54:Generated_Source\PSoC5/ErikaOS_1_common_ee_irqstub.inc ****  * This header depends on "cpu/common/inc/ee_context.inc" or your own
  55:Generated_Source\PSoC5/ErikaOS_1_common_ee_irqstub.inc ****  * implementation of the same. You should include it file before including this
  56:Generated_Source\PSoC5/ErikaOS_1_common_ee_irqstub.inc ****  * file
  57:Generated_Source\PSoC5/ErikaOS_1_common_ee_irqstub.inc ****  ******************************************************************************/
  58:Generated_Source\PSoC5/ErikaOS_1_common_ee_irqstub.inc **** 
  59:Generated_Source\PSoC5/ErikaOS_1_common_ee_irqstub.inc **** #ifndef PKG_CPU_COMMON_INC_EE_IRQSTUB_H
  60:Generated_Source\PSoC5/ErikaOS_1_common_ee_irqstub.inc **** #define PKG_CPU_COMMON_INC_EE_IRQSTUB_H
  61:Generated_Source\PSoC5/ErikaOS_1_common_ee_irqstub.inc **** 
  62:Generated_Source\PSoC5/ErikaOS_1_common_ee_irqstub.inc **** /* this bring EE_IRQ_nesting_level definition */
  63:Generated_Source\PSoC5/ErikaOS_1_common_ee_irqstub.inc **** #include "ErikaOS_1_common_ee_primitives.inc"
  64:Generated_Source\PSoC5/ErikaOS_1_common_ee_irqstub.inc **** 
  65:Generated_Source\PSoC5/ErikaOS_1_common_ee_irqstub.inc **** /* True if we are inside an interrupt-serving routine */
  66:Generated_Source\PSoC5/ErikaOS_1_common_ee_irqstub.inc **** __INLINE__ EE_TYPEBOOL  EE_is_inside_ISR_call( void )
  67:Generated_Source\PSoC5/ErikaOS_1_common_ee_irqstub.inc **** {
  68:Generated_Source\PSoC5/ErikaOS_1_common_ee_irqstub.inc ****   return (EE_IRQ_nesting_level > 0U);
ARM GAS  C:\Users\zakis\AppData\Local\Temp\cc6x66Sb.s 			page 14


  69:Generated_Source\PSoC5/ErikaOS_1_common_ee_irqstub.inc **** }
  70:Generated_Source\PSoC5/ErikaOS_1_common_ee_irqstub.inc **** 
  71:Generated_Source\PSoC5/ErikaOS_1_common_ee_irqstub.inc **** 
  72:Generated_Source\PSoC5/ErikaOS_1_common_ee_irqstub.inc **** /* EE_decrement_IRQ_nesting_level() and EE_increment_IRQ_nesting_level() are
  73:Generated_Source\PSoC5/ErikaOS_1_common_ee_irqstub.inc ****  * used to keep track of the current IRQ nesting level.
  74:Generated_Source\PSoC5/ErikaOS_1_common_ee_irqstub.inc ****  * EE_std_enableIRQ_nested() and EE_std_disableIRQ_nested() are used to control
  75:Generated_Source\PSoC5/ErikaOS_1_common_ee_irqstub.inc ****  * when IRQ nesting is enabled.
  76:Generated_Source\PSoC5/ErikaOS_1_common_ee_irqstub.inc ****  */
  77:Generated_Source\PSoC5/ErikaOS_1_common_ee_irqstub.inc **** #if defined(__AS_SC4__)
  78:Generated_Source\PSoC5/ErikaOS_1_common_ee_irqstub.inc **** /* For SC4 the nesting level is updated inside the prestub and postub */
  79:Generated_Source\PSoC5/ErikaOS_1_common_ee_irqstub.inc **** __INLINE__ void  EE_decrement_IRQ_nesting_level(void) {}
  80:Generated_Source\PSoC5/ErikaOS_1_common_ee_irqstub.inc **** __INLINE__ void  EE_increment_IRQ_nesting_level(void) {}
  81:Generated_Source\PSoC5/ErikaOS_1_common_ee_irqstub.inc **** __INLINE__ void  EE_std_enableIRQ_nested(void) {}
  82:Generated_Source\PSoC5/ErikaOS_1_common_ee_irqstub.inc **** __INLINE__ void  EE_std_disableIRQ_nested(void) {}
  83:Generated_Source\PSoC5/ErikaOS_1_common_ee_irqstub.inc **** #elif defined(__ALLOW_NESTED_IRQ__)
  84:Generated_Source\PSoC5/ErikaOS_1_common_ee_irqstub.inc **** __INLINE__ void  EE_decrement_IRQ_nesting_level(void) { --EE_IRQ_nesting_level; }
  85:Generated_Source\PSoC5/ErikaOS_1_common_ee_irqstub.inc **** __INLINE__ void  EE_increment_IRQ_nesting_level(void) { ++EE_IRQ_nesting_level; }
 178              		.loc 3 85 0
 179 004e 104A     		ldr	r2, .L12+8
 180 0050 1368     		ldr	r3, [r2]
 181 0052 0133     		adds	r3, r3, #1
 182 0054 1360     		str	r3, [r2]
 183              	.LBE59:
 184              	.LBE58:
 185              		.loc 1 113 0
 186 0056 012B     		cmp	r3, #1
 187 0058 01D1     		bne	.L9
 188              		.loc 1 113 0 is_stmt 0 discriminator 1
 189 005a FFF7FEFF 		bl	EE_cortex_mx_change_IRQ_stack
 190              	.LVL16:
 191              	.L9:
 192              	.LBB60:
 193              	.LBB61:
 191:Generated_Source\PSoC5/ErikaOS_1_cortex_mx_ee_cpu.inc **** #endif	/* !__KEIL__ */
 194              		.loc 2 191 0 is_stmt 1 discriminator 3
 195              		.syntax unified
 196              	@ 191 "Generated_Source\PSoC5/ErikaOS_1_cortex_mx_ee_cpu.inc" 1
 197 005e 62B6     		cpsie i
 198              	@ 0 "" 2
 199              		.thumb
 200              		.syntax unified
 201              	.LBE61:
 202              	.LBE60:
 203              	.LBB62:
 204              	.LBB63:
 211:Generated_Source\PSoC5/ErikaOS_1_cortex_mx_ee_cpu.inc **** #endif	/* !__KEIL__ */
 205              		.loc 2 211 0 discriminator 3
 206              		.syntax unified
 207              	@ 211 "Generated_Source\PSoC5/ErikaOS_1_cortex_mx_ee_cpu.inc" 1
 208 0060 72B6     		cpsid i
 209              	@ 0 "" 2
 210              	.LVL17:
 211              		.thumb
 212              		.syntax unified
 213              	.LBE63:
 214              	.LBE62:
 215              	.LBB64:
ARM GAS  C:\Users\zakis\AppData\Local\Temp\cc6x66Sb.s 			page 15


 216              	.LBB65:
 358:Generated_Source\PSoC5/ErikaOS_1_cortex_mx_ee_cpu.inc **** #else
 217              		.loc 2 358 0 discriminator 3
 218              		.syntax unified
 219              	@ 358 "Generated_Source\PSoC5/ErikaOS_1_cortex_mx_ee_cpu.inc" 1
 220 0062 84F31188 		MSR BASEPRI, r4
 221              	@ 0 "" 2
 222              	.LVL18:
 223              		.thumb
 224              		.syntax unified
 225              	.LBE65:
 226              	.LBE64:
 227              	.LBB66:
 228              	.LBB67:
  86:Generated_Source\PSoC5/ErikaOS_1_common_ee_irqstub.inc **** /*  EE_std_enableIRQ_nested() and EE_std_disableIRQ_nested() must be defined in
  87:Generated_Source\PSoC5/ErikaOS_1_common_ee_irqstub.inc ****  *  the platform-dependent part, as they dependend on the particular way
  88:Generated_Source\PSoC5/ErikaOS_1_common_ee_irqstub.inc ****  *  interrupts are handled by the CPU. */
  89:Generated_Source\PSoC5/ErikaOS_1_common_ee_irqstub.inc **** #else
  90:Generated_Source\PSoC5/ErikaOS_1_common_ee_irqstub.inc **** __INLINE__ void  EE_decrement_IRQ_nesting_level(void) { EE_IRQ_nesting_level = 0U; }
  91:Generated_Source\PSoC5/ErikaOS_1_common_ee_irqstub.inc **** __INLINE__ void  EE_increment_IRQ_nesting_level(void) { EE_IRQ_nesting_level = 1U; }
  92:Generated_Source\PSoC5/ErikaOS_1_common_ee_irqstub.inc **** __INLINE__ void  EE_std_enableIRQ_nested(void) {}
  93:Generated_Source\PSoC5/ErikaOS_1_common_ee_irqstub.inc **** __INLINE__ void  EE_std_disableIRQ_nested(void) {}
  94:Generated_Source\PSoC5/ErikaOS_1_common_ee_irqstub.inc **** #endif
  95:Generated_Source\PSoC5/ErikaOS_1_common_ee_irqstub.inc **** 
  96:Generated_Source\PSoC5/ErikaOS_1_common_ee_irqstub.inc **** #if (defined(__OO_BCC1__)) || (defined(__OO_BCC2__)) || (defined(__OO_ECC1__)) \
  97:Generated_Source\PSoC5/ErikaOS_1_common_ee_irqstub.inc ****   || (defined(__OO_ECC2__)) || (defined(__AS_SC4__))
  98:Generated_Source\PSoC5/ErikaOS_1_common_ee_irqstub.inc **** /* Function to be called at the end of a function service interrupt, to execute
  99:Generated_Source\PSoC5/ErikaOS_1_common_ee_irqstub.inc ****    clean-up specifiend in Autosar standard */
 100:Generated_Source\PSoC5/ErikaOS_1_common_ee_irqstub.inc **** __INLINE__ void  EE_std_end_IRQ_post_stub(void)
 101:Generated_Source\PSoC5/ErikaOS_1_common_ee_irqstub.inc **** {
 102:Generated_Source\PSoC5/ErikaOS_1_common_ee_irqstub.inc ****   EE_IRQ_end_post_stub();
 229              		.loc 3 102 0 discriminator 3
 230 0066 FFF7FEFF 		bl	EE_IRQ_end_post_stub
 231              	.LVL19:
 232              	.LBE67:
 233              	.LBE66:
 234              	.LBB68:
 235              	.LBB69:
  84:Generated_Source\PSoC5/ErikaOS_1_common_ee_irqstub.inc **** __INLINE__ void  EE_increment_IRQ_nesting_level(void) { ++EE_IRQ_nesting_level; }
 236              		.loc 3 84 0 discriminator 3
 237 006a 094A     		ldr	r2, .L12+8
 238 006c 1368     		ldr	r3, [r2]
 239 006e 013B     		subs	r3, r3, #1
 240 0070 1360     		str	r3, [r2]
 241              	.LBE69:
 242              	.LBE68:
 243              		.loc 1 113 0 discriminator 3
 244 0072 1BB9     		cbnz	r3, .L10
 245              		.loc 1 113 0 is_stmt 0 discriminator 4
 246 0074 FFF7FEFF 		bl	EE_cortex_mx_change_IRQ_stack_back
 247              	.LVL20:
 248              	.LBB70:
 249              	.LBB71:
 250              		.file 4 "Generated_Source\\PSoC5/ErikaOS_1_cortex_mx_ee_irq_cng_cont.inc"
   1:Generated_Source\PSoC5/ErikaOS_1_cortex_mx_ee_irq_cng_cont.inc **** /* ###*B*###
   2:Generated_Source\PSoC5/ErikaOS_1_cortex_mx_ee_irq_cng_cont.inc ****  * ERIKA Enterprise - a tiny RTOS for small microcontrollers
   3:Generated_Source\PSoC5/ErikaOS_1_cortex_mx_ee_irq_cng_cont.inc ****  *
ARM GAS  C:\Users\zakis\AppData\Local\Temp\cc6x66Sb.s 			page 16


   4:Generated_Source\PSoC5/ErikaOS_1_cortex_mx_ee_irq_cng_cont.inc ****  * Copyright (C) 2002-2011  Evidence Srl
   5:Generated_Source\PSoC5/ErikaOS_1_cortex_mx_ee_irq_cng_cont.inc ****  *
   6:Generated_Source\PSoC5/ErikaOS_1_cortex_mx_ee_irq_cng_cont.inc ****  * This file is part of ERIKA Enterprise.
   7:Generated_Source\PSoC5/ErikaOS_1_cortex_mx_ee_irq_cng_cont.inc ****  *
   8:Generated_Source\PSoC5/ErikaOS_1_cortex_mx_ee_irq_cng_cont.inc ****  * ERIKA Enterprise is free software; you can redistribute it
   9:Generated_Source\PSoC5/ErikaOS_1_cortex_mx_ee_irq_cng_cont.inc ****  * and/or modify it under the terms of the GNU General Public License
  10:Generated_Source\PSoC5/ErikaOS_1_cortex_mx_ee_irq_cng_cont.inc ****  * version 2 as published by the Free Software Foundation, 
  11:Generated_Source\PSoC5/ErikaOS_1_cortex_mx_ee_irq_cng_cont.inc ****  * (with a special exception described below).
  12:Generated_Source\PSoC5/ErikaOS_1_cortex_mx_ee_irq_cng_cont.inc ****  *
  13:Generated_Source\PSoC5/ErikaOS_1_cortex_mx_ee_irq_cng_cont.inc ****  * Linking this code statically or dynamically with other modules is
  14:Generated_Source\PSoC5/ErikaOS_1_cortex_mx_ee_irq_cng_cont.inc ****  * making a combined work based on this code.  Thus, the terms and
  15:Generated_Source\PSoC5/ErikaOS_1_cortex_mx_ee_irq_cng_cont.inc ****  * conditions of the GNU General Public License cover the whole
  16:Generated_Source\PSoC5/ErikaOS_1_cortex_mx_ee_irq_cng_cont.inc ****  * combination.
  17:Generated_Source\PSoC5/ErikaOS_1_cortex_mx_ee_irq_cng_cont.inc ****  *
  18:Generated_Source\PSoC5/ErikaOS_1_cortex_mx_ee_irq_cng_cont.inc ****  * As a special exception, the copyright holders of this library give you
  19:Generated_Source\PSoC5/ErikaOS_1_cortex_mx_ee_irq_cng_cont.inc ****  * permission to link this code with independent modules to produce an
  20:Generated_Source\PSoC5/ErikaOS_1_cortex_mx_ee_irq_cng_cont.inc ****  * executable, regardless of the license terms of these independent
  21:Generated_Source\PSoC5/ErikaOS_1_cortex_mx_ee_irq_cng_cont.inc ****  * modules, and to copy and distribute the resulting executable under
  22:Generated_Source\PSoC5/ErikaOS_1_cortex_mx_ee_irq_cng_cont.inc ****  * terms of your choice, provided that you also meet, for each linked
  23:Generated_Source\PSoC5/ErikaOS_1_cortex_mx_ee_irq_cng_cont.inc ****  * independent module, the terms and conditions of the license of that
  24:Generated_Source\PSoC5/ErikaOS_1_cortex_mx_ee_irq_cng_cont.inc ****  * module.  An independent module is a module which is not derived from
  25:Generated_Source\PSoC5/ErikaOS_1_cortex_mx_ee_irq_cng_cont.inc ****  * or based on this library.  If you modify this code, you may extend
  26:Generated_Source\PSoC5/ErikaOS_1_cortex_mx_ee_irq_cng_cont.inc ****  * this exception to your version of the code, but you are not
  27:Generated_Source\PSoC5/ErikaOS_1_cortex_mx_ee_irq_cng_cont.inc ****  * obligated to do so.  If you do not wish to do so, delete this
  28:Generated_Source\PSoC5/ErikaOS_1_cortex_mx_ee_irq_cng_cont.inc ****  * exception statement from your version.
  29:Generated_Source\PSoC5/ErikaOS_1_cortex_mx_ee_irq_cng_cont.inc ****  *
  30:Generated_Source\PSoC5/ErikaOS_1_cortex_mx_ee_irq_cng_cont.inc ****  * ERIKA Enterprise is distributed in the hope that it will be
  31:Generated_Source\PSoC5/ErikaOS_1_cortex_mx_ee_irq_cng_cont.inc ****  * useful, but WITHOUT ANY WARRANTY; without even the implied warranty
  32:Generated_Source\PSoC5/ErikaOS_1_cortex_mx_ee_irq_cng_cont.inc ****  * of MERCHANTABILITY or FITNESS FOR A PARTICULAR PURPOSE.  See the
  33:Generated_Source\PSoC5/ErikaOS_1_cortex_mx_ee_irq_cng_cont.inc ****  * GNU General Public License version 2 for more details.
  34:Generated_Source\PSoC5/ErikaOS_1_cortex_mx_ee_irq_cng_cont.inc ****  *
  35:Generated_Source\PSoC5/ErikaOS_1_cortex_mx_ee_irq_cng_cont.inc ****  * You should have received a copy of the GNU General Public License
  36:Generated_Source\PSoC5/ErikaOS_1_cortex_mx_ee_irq_cng_cont.inc ****  * version 2 along with ERIKA Enterprise; if not, write to the
  37:Generated_Source\PSoC5/ErikaOS_1_cortex_mx_ee_irq_cng_cont.inc ****  * Free Software Foundation, Inc., 51 Franklin Street, Fifth Floor,
  38:Generated_Source\PSoC5/ErikaOS_1_cortex_mx_ee_irq_cng_cont.inc ****  * Boston, MA 02110-1301 USA.
  39:Generated_Source\PSoC5/ErikaOS_1_cortex_mx_ee_irq_cng_cont.inc ****  * ###*E*### */
  40:Generated_Source\PSoC5/ErikaOS_1_cortex_mx_ee_irq_cng_cont.inc **** 
  41:Generated_Source\PSoC5/ErikaOS_1_cortex_mx_ee_irq_cng_cont.inc ****  /** 
  42:Generated_Source\PSoC5/ErikaOS_1_cortex_mx_ee_irq_cng_cont.inc **** 	
  43:Generated_Source\PSoC5/ErikaOS_1_cortex_mx_ee_irq_cng_cont.inc **** 	@file	ee_irq_cng_cont.h
  44:Generated_Source\PSoC5/ErikaOS_1_cortex_mx_ee_irq_cng_cont.inc **** 	@brief	Function active the context change interrupt
  45:Generated_Source\PSoC5/ErikaOS_1_cortex_mx_ee_irq_cng_cont.inc **** 	@author	Gianluca Franchino
  46:Generated_Source\PSoC5/ErikaOS_1_cortex_mx_ee_irq_cng_cont.inc **** 	@author	Giuseppe Serano
  47:Generated_Source\PSoC5/ErikaOS_1_cortex_mx_ee_irq_cng_cont.inc **** 	@date	2012
  48:Generated_Source\PSoC5/ErikaOS_1_cortex_mx_ee_irq_cng_cont.inc **** */ 
  49:Generated_Source\PSoC5/ErikaOS_1_cortex_mx_ee_irq_cng_cont.inc ****     
  50:Generated_Source\PSoC5/ErikaOS_1_cortex_mx_ee_irq_cng_cont.inc **** /*
  51:Generated_Source\PSoC5/ErikaOS_1_cortex_mx_ee_irq_cng_cont.inc ****  * PSoC Port and API Generation
  52:Generated_Source\PSoC5/ErikaOS_1_cortex_mx_ee_irq_cng_cont.inc ****  * Carlos Fernando Meier Martinez
  53:Generated_Source\PSoC5/ErikaOS_1_cortex_mx_ee_irq_cng_cont.inc ****  * Hochschule Darmstadt, Germany. 2017.
  54:Generated_Source\PSoC5/ErikaOS_1_cortex_mx_ee_irq_cng_cont.inc ****  */
  55:Generated_Source\PSoC5/ErikaOS_1_cortex_mx_ee_irq_cng_cont.inc **** 
  56:Generated_Source\PSoC5/ErikaOS_1_cortex_mx_ee_irq_cng_cont.inc **** #ifndef __INCLUDE_CORTEX_MX_IRQ_CNG_CONTEXT_H__
  57:Generated_Source\PSoC5/ErikaOS_1_cortex_mx_ee_irq_cng_cont.inc **** #define __INCLUDE_CORTEX_MX_IRQ_CNG_CONTEXT_H__
  58:Generated_Source\PSoC5/ErikaOS_1_cortex_mx_ee_irq_cng_cont.inc **** 
  59:Generated_Source\PSoC5/ErikaOS_1_cortex_mx_ee_irq_cng_cont.inc **** #ifdef __GNU__
  60:Generated_Source\PSoC5/ErikaOS_1_cortex_mx_ee_irq_cng_cont.inc **** #include "ErikaOS_1_common_ee_compiler_gcc.inc"
ARM GAS  C:\Users\zakis\AppData\Local\Temp\cc6x66Sb.s 			page 17


  61:Generated_Source\PSoC5/ErikaOS_1_cortex_mx_ee_irq_cng_cont.inc **** #endif
  62:Generated_Source\PSoC5/ErikaOS_1_cortex_mx_ee_irq_cng_cont.inc **** 
  63:Generated_Source\PSoC5/ErikaOS_1_cortex_mx_ee_irq_cng_cont.inc **** /* Implemented in ee_<compiler>_change_context_isr.s */
  64:Generated_Source\PSoC5/ErikaOS_1_cortex_mx_ee_irq_cng_cont.inc **** extern void EE_switch_context(void);
  65:Generated_Source\PSoC5/ErikaOS_1_cortex_mx_ee_irq_cng_cont.inc **** 
  66:Generated_Source\PSoC5/ErikaOS_1_cortex_mx_ee_irq_cng_cont.inc **** __INLINE__ void  EE_cortex_mx_IRQ_active_change_context(void)
  67:Generated_Source\PSoC5/ErikaOS_1_cortex_mx_ee_irq_cng_cont.inc **** {
  68:Generated_Source\PSoC5/ErikaOS_1_cortex_mx_ee_irq_cng_cont.inc **** 	EE_switch_context();
 251              		.loc 4 68 0 is_stmt 1 discriminator 4
 252 0078 FFF7FEFF 		bl	EE_switch_context
 253              	.LVL21:
 254              	.L10:
 255              	.LBE71:
 256              	.LBE70:
 257              	.LBB72:
 258              	.LBB73:
 191:Generated_Source\PSoC5/ErikaOS_1_cortex_mx_ee_cpu.inc **** #endif	/* !__KEIL__ */
 259              		.loc 2 191 0 discriminator 6
 260              		.syntax unified
 261              	@ 191 "Generated_Source\PSoC5/ErikaOS_1_cortex_mx_ee_cpu.inc" 1
 262 007c 62B6     		cpsie i
 263              	@ 0 "" 2
 264              		.thumb
 265              		.syntax unified
 266              	.LBE73:
 267              	.LBE72:
 268              		.loc 1 113 0 discriminator 6
 269 007e BDE81940 		pop	{r0, r3, r4, lr}
 270              		.cfi_restore 14
 271              		.cfi_restore 4
 272              		.cfi_restore 3
 273              		.cfi_restore 0
 274              		.cfi_def_cfa_offset 0
 275 0082 8546     		mov	sp, r0
 276 0084 7047     		bx	lr
 277              	.L13:
 278 0086 00BF     		.align	2
 279              	.L12:
 280 0088 04ED00E0 		.word	-536810236
 281 008c 20ED00E0 		.word	-536810208
 282 0090 00000000 		.word	EE_IRQ_nesting_level
 283              		.cfi_endproc
 284              	.LFE111:
 285              		.size	isr_Button, .-isr_Button
 286              		.section	.text.ISR2_isr_Button,"ax",%progbits
 287              		.align	2
 288              		.global	ISR2_isr_Button
 289              		.thumb
 290              		.thumb_func
 291              		.type	ISR2_isr_Button, %function
 292              	ISR2_isr_Button:
 293              	.LFB112:
 294              		.loc 1 113 0
 295              		.cfi_startproc
 296              		@ args = 0, pretend = 0, frame = 0
 297              		@ frame_needed = 0, uses_anonymous_args = 0
 298              		@ link register save eliminated.
ARM GAS  C:\Users\zakis\AppData\Local\Temp\cc6x66Sb.s 			page 18


 299 0000 7047     		bx	lr
 300              		.cfi_endproc
 301              	.LFE112:
 302              		.size	ISR2_isr_Button, .-ISR2_isr_Button
 303              		.global	RTE_eventActivation_tsk_input_size
 304              		.global	RTE_eventActivationTable_tsk_input
 305              		.global	RTE_cyclicActivation_tsk_input_size
 306              		.global	RTE_cyclicActivationTable_tsk_input
 307 0002 00BF     		.section	.rodata
 308              		.align	2
 309              		.set	.LANCHOR0,. + 0
 310              		.type	RTE_eventActivationTable_tsk_input, %object
 311              		.size	RTE_eventActivationTable_tsk_input, 24
 312              	RTE_eventActivationTable_tsk_input:
 313 0000 00000000 		.word	INPUT_readButtons_run
 314 0004 10000000 		.word	16
 315 0008 00000000 		.word	INPUT_250ms_run
 316 000c 04000000 		.word	4
 317 0010 00000000 		.word	INPUT_1min_run
 318 0014 08000000 		.word	8
 319              		.type	RTE_eventActivation_tsk_input_size, %object
 320              		.size	RTE_eventActivation_tsk_input_size, 2
 321              	RTE_eventActivation_tsk_input_size:
 322 0018 0300     		.short	3
 323              		.type	RTE_cyclicActivation_tsk_input_size, %object
 324              		.size	RTE_cyclicActivation_tsk_input_size, 2
 325              	RTE_cyclicActivation_tsk_input_size:
 326 001a 0000     		.space	2
 327              		.type	RTE_cyclicActivationTable_tsk_input, %object
 328              		.size	RTE_cyclicActivationTable_tsk_input, 0
 329              	RTE_cyclicActivationTable_tsk_input:
 330              		.text
 331              	.Letext0:
 332              		.file 5 "c:\\program files (x86)\\cypress\\psoc creator\\4.4\\psoc creator\\import\\gnu\\arm\\5.4.
 333              		.file 6 "c:\\program files (x86)\\cypress\\psoc creator\\4.4\\psoc creator\\import\\gnu\\arm\\5.4.
 334              		.file 7 "Generated_Source\\PSoC5/ErikaOS_1_common_ee_types.inc"
 335              		.file 8 "Generated_Source\\PSoC5/ErikaOS_1_ee_oo_common.inc"
 336              		.file 9 ".\\source/rte_types.h"
 337              		.file 10 ".\\source/rte.h"
 338              		.file 11 "Generated_Source\\PSoC5/ErikaOS_1_ee_oo_intfunc.inc"
 339              		.file 12 "Generated_Source\\PSoC5/ErikaOS_1_cortex_mx_ee_context.inc"
 340              		.file 13 "Generated_Source\\PSoC5/ErikaOS_1_common_ee_primitives.inc"
 341              		.file 14 "Generated_Source\\PSoC5/core_cm3.h"
 342              		.file 15 "Generated_Source\\PSoC5/ErikaOS_1_ee_oo_kernel.inc"
 343              		.file 16 "Generated_Source\\PSoC5/ErikaOS_1_ee_oo_irq.inc"
 344              		.file 17 "Generated_Source\\PSoC5/ErikaOS_1_cortex_mx_ee_irq.inc"